
Project2Secure.o:     file format elf64-x86-64


Disassembly of section .text:

0000000000000000 <_Z12hashPasswordRKNSt7__cxx1112basic_stringIcSt11char_traitsIcESaIcEEE>:
   0:	55                   	push   %rbp
   1:	48 89 e5             	mov    %rsp,%rbp
   4:	48 83 ec 20          	sub    $0x20,%rsp
   8:	48 89 7d e8          	mov    %rdi,-0x18(%rbp)
   c:	48 89 75 e0          	mov    %rsi,-0x20(%rbp)
  10:	64 48 8b 04 25 28 00 	mov    %fs:0x28,%rax
  17:	00 00 
  19:	48 89 45 f8          	mov    %rax,-0x8(%rbp)
  1d:	31 c0                	xor    %eax,%eax
  1f:	48 8b 55 e0          	mov    -0x20(%rbp),%rdx
  23:	48 8d 45 f7          	lea    -0x9(%rbp),%rax
  27:	48 89 d6             	mov    %rdx,%rsi
  2a:	48 89 c7             	mov    %rax,%rdi
  2d:	e8 00 00 00 00       	callq  32 <_Z12hashPasswordRKNSt7__cxx1112basic_stringIcSt11char_traitsIcESaIcEEE+0x32>
  32:	48 89 c2             	mov    %rax,%rdx
  35:	48 8b 45 e8          	mov    -0x18(%rbp),%rax
  39:	48 89 d6             	mov    %rdx,%rsi
  3c:	48 89 c7             	mov    %rax,%rdi
  3f:	e8 00 00 00 00       	callq  44 <_Z12hashPasswordRKNSt7__cxx1112basic_stringIcSt11char_traitsIcESaIcEEE+0x44>
  44:	48 8b 45 e8          	mov    -0x18(%rbp),%rax
  48:	48 8b 4d f8          	mov    -0x8(%rbp),%rcx
  4c:	64 48 33 0c 25 28 00 	xor    %fs:0x28,%rcx
  53:	00 00 
  55:	74 05                	je     5c <_Z12hashPasswordRKNSt7__cxx1112basic_stringIcSt11char_traitsIcESaIcEEE+0x5c>
  57:	e8 00 00 00 00       	callq  5c <_Z12hashPasswordRKNSt7__cxx1112basic_stringIcSt11char_traitsIcESaIcEEE+0x5c>
  5c:	c9                   	leaveq 
  5d:	c3                   	retq   

000000000000005e <_Z25CheckUserPermissionAccessv>:
  5e:	55                   	push   %rbp
  5f:	48 89 e5             	mov    %rsp,%rbp
  62:	41 54                	push   %r12
  64:	53                   	push   %rbx
  65:	48 81 ec 90 00 00 00 	sub    $0x90,%rsp
  6c:	64 48 8b 04 25 28 00 	mov    %fs:0x28,%rax
  73:	00 00 
  75:	48 89 45 e8          	mov    %rax,-0x18(%rbp)
  79:	31 c0                	xor    %eax,%eax
  7b:	48 8d 45 80          	lea    -0x80(%rbp),%rax
  7f:	48 89 c7             	mov    %rax,%rdi
  82:	e8 00 00 00 00       	callq  87 <_Z25CheckUserPermissionAccessv+0x29>
  87:	48 8d 45 a0          	lea    -0x60(%rbp),%rax
  8b:	48 89 c7             	mov    %rax,%rdi
  8e:	e8 00 00 00 00       	callq  93 <_Z25CheckUserPermissionAccessv+0x35>
  93:	c7 85 6c ff ff ff 00 	movl   $0x0,-0x94(%rbp)
  9a:	00 00 00 
  9d:	83 bd 6c ff ff ff 02 	cmpl   $0x2,-0x94(%rbp)
  a4:	0f 8f 51 01 00 00    	jg     1fb <_Z25CheckUserPermissionAccessv+0x19d>
  aa:	48 8d 35 00 00 00 00 	lea    0x0(%rip),%rsi        # b1 <_Z25CheckUserPermissionAccessv+0x53>
  b1:	48 8d 3d 00 00 00 00 	lea    0x0(%rip),%rdi        # b8 <_Z25CheckUserPermissionAccessv+0x5a>
  b8:	e8 00 00 00 00       	callq  bd <_Z25CheckUserPermissionAccessv+0x5f>
  bd:	48 8d 45 80          	lea    -0x80(%rbp),%rax
  c1:	48 89 c6             	mov    %rax,%rsi
  c4:	48 8d 3d 00 00 00 00 	lea    0x0(%rip),%rdi        # cb <_Z25CheckUserPermissionAccessv+0x6d>
  cb:	e8 00 00 00 00       	callq  d0 <_Z25CheckUserPermissionAccessv+0x72>
  d0:	48 8d 35 00 00 00 00 	lea    0x0(%rip),%rsi        # d7 <_Z25CheckUserPermissionAccessv+0x79>
  d7:	48 8d 3d 00 00 00 00 	lea    0x0(%rip),%rdi        # de <_Z25CheckUserPermissionAccessv+0x80>
  de:	e8 00 00 00 00       	callq  e3 <_Z25CheckUserPermissionAccessv+0x85>
  e3:	48 8d 45 a0          	lea    -0x60(%rbp),%rax
  e7:	48 89 c6             	mov    %rax,%rsi
  ea:	48 8d 3d 00 00 00 00 	lea    0x0(%rip),%rdi        # f1 <_Z25CheckUserPermissionAccessv+0x93>
  f1:	e8 00 00 00 00       	callq  f6 <_Z25CheckUserPermissionAccessv+0x98>
  f6:	48 8d 45 c0          	lea    -0x40(%rbp),%rax
  fa:	48 8d 55 a0          	lea    -0x60(%rbp),%rdx
  fe:	48 89 d6             	mov    %rdx,%rsi
 101:	48 89 c7             	mov    %rax,%rdi
 104:	e8 00 00 00 00       	callq  109 <_Z25CheckUserPermissionAccessv+0xab>
 109:	48 8d 3d 00 00 00 00 	lea    0x0(%rip),%rdi        # 110 <_Z25CheckUserPermissionAccessv+0xb2>
 110:	e8 00 00 00 00       	callq  115 <_Z25CheckUserPermissionAccessv+0xb7>
 115:	48 89 85 78 ff ff ff 	mov    %rax,-0x88(%rbp)
 11c:	48 8d 45 80          	lea    -0x80(%rbp),%rax
 120:	48 89 c6             	mov    %rax,%rsi
 123:	48 8d 3d 00 00 00 00 	lea    0x0(%rip),%rdi        # 12a <_Z25CheckUserPermissionAccessv+0xcc>
 12a:	e8 00 00 00 00       	callq  12f <_Z25CheckUserPermissionAccessv+0xd1>
 12f:	48 89 85 70 ff ff ff 	mov    %rax,-0x90(%rbp)
 136:	48 8d 95 78 ff ff ff 	lea    -0x88(%rbp),%rdx
 13d:	48 8d 85 70 ff ff ff 	lea    -0x90(%rbp),%rax
 144:	48 89 d6             	mov    %rdx,%rsi
 147:	48 89 c7             	mov    %rax,%rdi
 14a:	e8 00 00 00 00       	callq  14f <_Z25CheckUserPermissionAccessv+0xf1>
 14f:	84 c0                	test   %al,%al
 151:	74 30                	je     183 <_Z25CheckUserPermissionAccessv+0x125>
 153:	48 8d 45 80          	lea    -0x80(%rbp),%rax
 157:	48 89 c6             	mov    %rax,%rsi
 15a:	48 8d 3d 00 00 00 00 	lea    0x0(%rip),%rdi        # 161 <_Z25CheckUserPermissionAccessv+0x103>
 161:	e8 00 00 00 00       	callq  166 <_Z25CheckUserPermissionAccessv+0x108>
 166:	48 89 c2             	mov    %rax,%rdx
 169:	48 8d 45 c0          	lea    -0x40(%rbp),%rax
 16d:	48 89 c6             	mov    %rax,%rsi
 170:	48 89 d7             	mov    %rdx,%rdi
 173:	e8 00 00 00 00       	callq  178 <_Z25CheckUserPermissionAccessv+0x11a>
 178:	84 c0                	test   %al,%al
 17a:	74 07                	je     183 <_Z25CheckUserPermissionAccessv+0x125>
 17c:	b8 01 00 00 00       	mov    $0x1,%eax
 181:	eb 05                	jmp    188 <_Z25CheckUserPermissionAccessv+0x12a>
 183:	b8 00 00 00 00       	mov    $0x0,%eax
 188:	84 c0                	test   %al,%al
 18a:	74 0d                	je     199 <_Z25CheckUserPermissionAccessv+0x13b>
 18c:	41 bc 01 00 00 00    	mov    $0x1,%r12d
 192:	bb 00 00 00 00       	mov    $0x0,%ebx
 197:	eb 1f                	jmp    1b8 <_Z25CheckUserPermissionAccessv+0x15a>
 199:	48 8d 35 00 00 00 00 	lea    0x0(%rip),%rsi        # 1a0 <_Z25CheckUserPermissionAccessv+0x142>
 1a0:	48 8d 3d 00 00 00 00 	lea    0x0(%rip),%rdi        # 1a7 <_Z25CheckUserPermissionAccessv+0x149>
 1a7:	e8 00 00 00 00       	callq  1ac <_Z25CheckUserPermissionAccessv+0x14e>
 1ac:	83 85 6c ff ff ff 01 	addl   $0x1,-0x94(%rbp)
 1b3:	bb 01 00 00 00       	mov    $0x1,%ebx
 1b8:	48 8d 45 c0          	lea    -0x40(%rbp),%rax
 1bc:	48 89 c7             	mov    %rax,%rdi
 1bf:	e8 00 00 00 00       	callq  1c4 <_Z25CheckUserPermissionAccessv+0x166>
 1c4:	83 fb 01             	cmp    $0x1,%ebx
 1c7:	75 06                	jne    1cf <_Z25CheckUserPermissionAccessv+0x171>
 1c9:	90                   	nop
 1ca:	e9 ce fe ff ff       	jmpq   9d <_Z25CheckUserPermissionAccessv+0x3f>
 1cf:	48 8d 45 a0          	lea    -0x60(%rbp),%rax
 1d3:	48 89 c7             	mov    %rax,%rdi
 1d6:	e8 00 00 00 00       	callq  1db <_Z25CheckUserPermissionAccessv+0x17d>
 1db:	48 8d 45 80          	lea    -0x80(%rbp),%rax
 1df:	48 89 c7             	mov    %rax,%rdi
 1e2:	e8 00 00 00 00       	callq  1e7 <_Z25CheckUserPermissionAccessv+0x189>
 1e7:	44 89 e0             	mov    %r12d,%eax
 1ea:	48 8b 4d e8          	mov    -0x18(%rbp),%rcx
 1ee:	64 48 33 0c 25 28 00 	xor    %fs:0x28,%rcx
 1f5:	00 00 
 1f7:	74 60                	je     259 <_Z25CheckUserPermissionAccessv+0x1fb>
 1f9:	eb 59                	jmp    254 <_Z25CheckUserPermissionAccessv+0x1f6>
 1fb:	48 8d 35 00 00 00 00 	lea    0x0(%rip),%rsi        # 202 <_Z25CheckUserPermissionAccessv+0x1a4>
 202:	48 8d 3d 00 00 00 00 	lea    0x0(%rip),%rdi        # 209 <_Z25CheckUserPermissionAccessv+0x1ab>
 209:	e8 00 00 00 00       	callq  20e <_Z25CheckUserPermissionAccessv+0x1b0>
 20e:	bf 01 00 00 00       	mov    $0x1,%edi
 213:	e8 00 00 00 00       	callq  218 <_Z25CheckUserPermissionAccessv+0x1ba>
 218:	48 89 c3             	mov    %rax,%rbx
 21b:	eb 03                	jmp    220 <_Z25CheckUserPermissionAccessv+0x1c2>
 21d:	48 89 c3             	mov    %rax,%rbx
 220:	48 8d 45 c0          	lea    -0x40(%rbp),%rax
 224:	48 89 c7             	mov    %rax,%rdi
 227:	e8 00 00 00 00       	callq  22c <_Z25CheckUserPermissionAccessv+0x1ce>
 22c:	eb 03                	jmp    231 <_Z25CheckUserPermissionAccessv+0x1d3>
 22e:	48 89 c3             	mov    %rax,%rbx
 231:	48 8d 45 a0          	lea    -0x60(%rbp),%rax
 235:	48 89 c7             	mov    %rax,%rdi
 238:	e8 00 00 00 00       	callq  23d <_Z25CheckUserPermissionAccessv+0x1df>
 23d:	48 8d 45 80          	lea    -0x80(%rbp),%rax
 241:	48 89 c7             	mov    %rax,%rdi
 244:	e8 00 00 00 00       	callq  249 <_Z25CheckUserPermissionAccessv+0x1eb>
 249:	48 89 d8             	mov    %rbx,%rax
 24c:	48 89 c7             	mov    %rax,%rdi
 24f:	e8 00 00 00 00       	callq  254 <_Z25CheckUserPermissionAccessv+0x1f6>
 254:	e8 00 00 00 00       	callq  259 <_Z25CheckUserPermissionAccessv+0x1fb>
 259:	48 81 c4 90 00 00 00 	add    $0x90,%rsp
 260:	5b                   	pop    %rbx
 261:	41 5c                	pop    %r12
 263:	5d                   	pop    %rbp
 264:	c3                   	retq   

0000000000000265 <_Z11DisplayInfov>:
 265:	55                   	push   %rbp
 266:	48 89 e5             	mov    %rsp,%rbp
 269:	53                   	push   %rbx
 26a:	48 83 ec 18          	sub    $0x18,%rsp
 26e:	48 8d 35 00 00 00 00 	lea    0x0(%rip),%rsi        # 275 <_Z11DisplayInfov+0x10>
 275:	48 8d 3d 00 00 00 00 	lea    0x0(%rip),%rdi        # 27c <_Z11DisplayInfov+0x17>
 27c:	e8 00 00 00 00       	callq  281 <_Z11DisplayInfov+0x1c>
 281:	48 89 c2             	mov    %rax,%rdx
 284:	48 8b 05 00 00 00 00 	mov    0x0(%rip),%rax        # 28b <_Z11DisplayInfov+0x26>
 28b:	48 89 c6             	mov    %rax,%rsi
 28e:	48 89 d7             	mov    %rdx,%rdi
 291:	e8 00 00 00 00       	callq  296 <_Z11DisplayInfov+0x31>
 296:	48 8d 35 00 00 00 00 	lea    0x0(%rip),%rsi        # 29d <_Z11DisplayInfov+0x38>
 29d:	48 8d 3d 00 00 00 00 	lea    0x0(%rip),%rdi        # 2a4 <_Z11DisplayInfov+0x3f>
 2a4:	e8 00 00 00 00       	callq  2a9 <_Z11DisplayInfov+0x44>
 2a9:	48 89 c2             	mov    %rax,%rdx
 2ac:	48 8b 05 00 00 00 00 	mov    0x0(%rip),%rax        # 2b3 <_Z11DisplayInfov+0x4e>
 2b3:	48 89 c6             	mov    %rax,%rsi
 2b6:	48 89 d7             	mov    %rdx,%rdi
 2b9:	e8 00 00 00 00       	callq  2be <_Z11DisplayInfov+0x59>
 2be:	48 c7 45 e8 00 00 00 	movq   $0x0,-0x18(%rbp)
 2c5:	00 
 2c6:	48 8d 3d 00 00 00 00 	lea    0x0(%rip),%rdi        # 2cd <_Z11DisplayInfov+0x68>
 2cd:	e8 00 00 00 00       	callq  2d2 <_Z11DisplayInfov+0x6d>
 2d2:	48 39 45 e8          	cmp    %rax,-0x18(%rbp)
 2d6:	0f 92 c0             	setb   %al
 2d9:	84 c0                	test   %al,%al
 2db:	0f 84 98 00 00 00    	je     379 <_Z11DisplayInfov+0x114>
 2e1:	48 8b 45 e8          	mov    -0x18(%rbp),%rax
 2e5:	48 83 c0 01          	add    $0x1,%rax
 2e9:	48 89 c6             	mov    %rax,%rsi
 2ec:	48 8d 3d 00 00 00 00 	lea    0x0(%rip),%rdi        # 2f3 <_Z11DisplayInfov+0x8e>
 2f3:	e8 00 00 00 00       	callq  2f8 <_Z11DisplayInfov+0x93>
 2f8:	48 8d 35 00 00 00 00 	lea    0x0(%rip),%rsi        # 2ff <_Z11DisplayInfov+0x9a>
 2ff:	48 89 c7             	mov    %rax,%rdi
 302:	e8 00 00 00 00       	callq  307 <_Z11DisplayInfov+0xa2>
 307:	48 89 c3             	mov    %rax,%rbx
 30a:	48 8b 45 e8          	mov    -0x18(%rbp),%rax
 30e:	48 89 c6             	mov    %rax,%rsi
 311:	48 8d 3d 00 00 00 00 	lea    0x0(%rip),%rdi        # 318 <_Z11DisplayInfov+0xb3>
 318:	e8 00 00 00 00       	callq  31d <_Z11DisplayInfov+0xb8>
 31d:	48 89 c6             	mov    %rax,%rsi
 320:	48 89 df             	mov    %rbx,%rdi
 323:	e8 00 00 00 00       	callq  328 <_Z11DisplayInfov+0xc3>
 328:	48 8d 35 00 00 00 00 	lea    0x0(%rip),%rsi        # 32f <_Z11DisplayInfov+0xca>
 32f:	48 89 c7             	mov    %rax,%rdi
 332:	e8 00 00 00 00       	callq  337 <_Z11DisplayInfov+0xd2>
 337:	48 89 c3             	mov    %rax,%rbx
 33a:	48 8b 45 e8          	mov    -0x18(%rbp),%rax
 33e:	48 89 c6             	mov    %rax,%rsi
 341:	48 8d 3d 00 00 00 00 	lea    0x0(%rip),%rdi        # 348 <_Z11DisplayInfov+0xe3>
 348:	e8 00 00 00 00       	callq  34d <_Z11DisplayInfov+0xe8>
 34d:	8b 40 20             	mov    0x20(%rax),%eax
 350:	89 c6                	mov    %eax,%esi
 352:	48 89 df             	mov    %rbx,%rdi
 355:	e8 00 00 00 00       	callq  35a <_Z11DisplayInfov+0xf5>
 35a:	48 89 c2             	mov    %rax,%rdx
 35d:	48 8b 05 00 00 00 00 	mov    0x0(%rip),%rax        # 364 <_Z11DisplayInfov+0xff>
 364:	48 89 c6             	mov    %rax,%rsi
 367:	48 89 d7             	mov    %rdx,%rdi
 36a:	e8 00 00 00 00       	callq  36f <_Z11DisplayInfov+0x10a>
 36f:	48 83 45 e8 01       	addq   $0x1,-0x18(%rbp)
 374:	e9 4d ff ff ff       	jmpq   2c6 <_Z11DisplayInfov+0x61>
 379:	90                   	nop
 37a:	48 83 c4 18          	add    $0x18,%rsp
 37e:	5b                   	pop    %rbx
 37f:	5d                   	pop    %rbp
 380:	c3                   	retq   

0000000000000381 <_Z20ChangeCustomerChoicev>:
 381:	55                   	push   %rbp
 382:	48 89 e5             	mov    %rsp,%rbp
 385:	53                   	push   %rbx
 386:	48 83 ec 18          	sub    $0x18,%rsp
 38a:	64 48 8b 04 25 28 00 	mov    %fs:0x28,%rax
 391:	00 00 
 393:	48 89 45 e8          	mov    %rax,-0x18(%rbp)
 397:	31 c0                	xor    %eax,%eax
 399:	48 8d 35 00 00 00 00 	lea    0x0(%rip),%rsi        # 3a0 <_Z20ChangeCustomerChoicev+0x1f>
 3a0:	48 8d 3d 00 00 00 00 	lea    0x0(%rip),%rdi        # 3a7 <_Z20ChangeCustomerChoicev+0x26>
 3a7:	e8 00 00 00 00       	callq  3ac <_Z20ChangeCustomerChoicev+0x2b>
 3ac:	48 8d 45 e0          	lea    -0x20(%rbp),%rax
 3b0:	48 89 c6             	mov    %rax,%rsi
 3b3:	48 8d 3d 00 00 00 00 	lea    0x0(%rip),%rdi        # 3ba <_Z20ChangeCustomerChoicev+0x39>
 3ba:	e8 00 00 00 00       	callq  3bf <_Z20ChangeCustomerChoicev+0x3e>
 3bf:	48 8b 10             	mov    (%rax),%rdx
 3c2:	48 83 ea 18          	sub    $0x18,%rdx
 3c6:	48 8b 12             	mov    (%rdx),%rdx
 3c9:	48 01 d0             	add    %rdx,%rax
 3cc:	48 89 c7             	mov    %rax,%rdi
 3cf:	e8 00 00 00 00       	callq  3d4 <_Z20ChangeCustomerChoicev+0x53>
 3d4:	84 c0                	test   %al,%al
 3d6:	75 1e                	jne    3f6 <_Z20ChangeCustomerChoicev+0x75>
 3d8:	8b 45 e0             	mov    -0x20(%rbp),%eax
 3db:	85 c0                	test   %eax,%eax
 3dd:	7e 17                	jle    3f6 <_Z20ChangeCustomerChoicev+0x75>
 3df:	8b 45 e0             	mov    -0x20(%rbp),%eax
 3e2:	48 63 d8             	movslq %eax,%rbx
 3e5:	48 8d 3d 00 00 00 00 	lea    0x0(%rip),%rdi        # 3ec <_Z20ChangeCustomerChoicev+0x6b>
 3ec:	e8 00 00 00 00       	callq  3f1 <_Z20ChangeCustomerChoicev+0x70>
 3f1:	48 39 c3             	cmp    %rax,%rbx
 3f4:	76 07                	jbe    3fd <_Z20ChangeCustomerChoicev+0x7c>
 3f6:	b8 01 00 00 00       	mov    $0x1,%eax
 3fb:	eb 05                	jmp    402 <_Z20ChangeCustomerChoicev+0x81>
 3fd:	b8 00 00 00 00       	mov    $0x0,%eax
 402:	84 c0                	test   %al,%al
 404:	74 6b                	je     471 <_Z20ChangeCustomerChoicev+0xf0>
 406:	48 8d 35 00 00 00 00 	lea    0x0(%rip),%rsi        # 40d <_Z20ChangeCustomerChoicev+0x8c>
 40d:	48 8d 3d 00 00 00 00 	lea    0x0(%rip),%rdi        # 414 <_Z20ChangeCustomerChoicev+0x93>
 414:	e8 00 00 00 00       	callq  419 <_Z20ChangeCustomerChoicev+0x98>
 419:	48 89 c3             	mov    %rax,%rbx
 41c:	48 8d 3d 00 00 00 00 	lea    0x0(%rip),%rdi        # 423 <_Z20ChangeCustomerChoicev+0xa2>
 423:	e8 00 00 00 00       	callq  428 <_Z20ChangeCustomerChoicev+0xa7>
 428:	48 89 c6             	mov    %rax,%rsi
 42b:	48 89 df             	mov    %rbx,%rdi
 42e:	e8 00 00 00 00       	callq  433 <_Z20ChangeCustomerChoicev+0xb2>
 433:	48 8d 35 00 00 00 00 	lea    0x0(%rip),%rsi        # 43a <_Z20ChangeCustomerChoicev+0xb9>
 43a:	48 89 c7             	mov    %rax,%rdi
 43d:	e8 00 00 00 00       	callq  442 <_Z20ChangeCustomerChoicev+0xc1>
 442:	be 00 00 00 00       	mov    $0x0,%esi
 447:	48 8d 3d 00 00 00 00 	lea    0x0(%rip),%rdi        # 44e <_Z20ChangeCustomerChoicev+0xcd>
 44e:	e8 00 00 00 00       	callq  453 <_Z20ChangeCustomerChoicev+0xd2>
 453:	e8 00 00 00 00       	callq  458 <_Z20ChangeCustomerChoicev+0xd7>
 458:	ba 0a 00 00 00       	mov    $0xa,%edx
 45d:	48 89 c6             	mov    %rax,%rsi
 460:	48 8d 3d 00 00 00 00 	lea    0x0(%rip),%rdi        # 467 <_Z20ChangeCustomerChoicev+0xe6>
 467:	e8 00 00 00 00       	callq  46c <_Z20ChangeCustomerChoicev+0xeb>
 46c:	e9 3b ff ff ff       	jmpq   3ac <_Z20ChangeCustomerChoicev+0x2b>
 471:	48 8d 35 00 00 00 00 	lea    0x0(%rip),%rsi        # 478 <_Z20ChangeCustomerChoicev+0xf7>
 478:	48 8d 3d 00 00 00 00 	lea    0x0(%rip),%rdi        # 47f <_Z20ChangeCustomerChoicev+0xfe>
 47f:	e8 00 00 00 00       	callq  484 <_Z20ChangeCustomerChoicev+0x103>
 484:	48 8d 45 e4          	lea    -0x1c(%rbp),%rax
 488:	48 89 c6             	mov    %rax,%rsi
 48b:	48 8d 3d 00 00 00 00 	lea    0x0(%rip),%rdi        # 492 <_Z20ChangeCustomerChoicev+0x111>
 492:	e8 00 00 00 00       	callq  497 <_Z20ChangeCustomerChoicev+0x116>
 497:	48 8b 10             	mov    (%rax),%rdx
 49a:	48 83 ea 18          	sub    $0x18,%rdx
 49e:	48 8b 12             	mov    (%rdx),%rdx
 4a1:	48 01 d0             	add    %rdx,%rax
 4a4:	48 89 c7             	mov    %rax,%rdi
 4a7:	e8 00 00 00 00       	callq  4ac <_Z20ChangeCustomerChoicev+0x12b>
 4ac:	84 c0                	test   %al,%al
 4ae:	75 10                	jne    4c0 <_Z20ChangeCustomerChoicev+0x13f>
 4b0:	8b 45 e4             	mov    -0x1c(%rbp),%eax
 4b3:	83 f8 01             	cmp    $0x1,%eax
 4b6:	74 0f                	je     4c7 <_Z20ChangeCustomerChoicev+0x146>
 4b8:	8b 45 e4             	mov    -0x1c(%rbp),%eax
 4bb:	83 f8 02             	cmp    $0x2,%eax
 4be:	74 07                	je     4c7 <_Z20ChangeCustomerChoicev+0x146>
 4c0:	b8 01 00 00 00       	mov    $0x1,%eax
 4c5:	eb 05                	jmp    4cc <_Z20ChangeCustomerChoicev+0x14b>
 4c7:	b8 00 00 00 00       	mov    $0x0,%eax
 4cc:	84 c0                	test   %al,%al
 4ce:	74 42                	je     512 <_Z20ChangeCustomerChoicev+0x191>
 4d0:	48 8d 35 00 00 00 00 	lea    0x0(%rip),%rsi        # 4d7 <_Z20ChangeCustomerChoicev+0x156>
 4d7:	48 8d 3d 00 00 00 00 	lea    0x0(%rip),%rdi        # 4de <_Z20ChangeCustomerChoicev+0x15d>
 4de:	e8 00 00 00 00       	callq  4e3 <_Z20ChangeCustomerChoicev+0x162>
 4e3:	be 00 00 00 00       	mov    $0x0,%esi
 4e8:	48 8d 3d 00 00 00 00 	lea    0x0(%rip),%rdi        # 4ef <_Z20ChangeCustomerChoicev+0x16e>
 4ef:	e8 00 00 00 00       	callq  4f4 <_Z20ChangeCustomerChoicev+0x173>
 4f4:	e8 00 00 00 00       	callq  4f9 <_Z20ChangeCustomerChoicev+0x178>
 4f9:	ba 0a 00 00 00       	mov    $0xa,%edx
 4fe:	48 89 c6             	mov    %rax,%rsi
 501:	48 8d 3d 00 00 00 00 	lea    0x0(%rip),%rdi        # 508 <_Z20ChangeCustomerChoicev+0x187>
 508:	e8 00 00 00 00       	callq  50d <_Z20ChangeCustomerChoicev+0x18c>
 50d:	e9 72 ff ff ff       	jmpq   484 <_Z20ChangeCustomerChoicev+0x103>
 512:	8b 45 e0             	mov    -0x20(%rbp),%eax
 515:	83 e8 01             	sub    $0x1,%eax
 518:	48 98                	cltq   
 51a:	48 89 c6             	mov    %rax,%rsi
 51d:	48 8d 3d 00 00 00 00 	lea    0x0(%rip),%rdi        # 524 <_Z20ChangeCustomerChoicev+0x1a3>
 524:	e8 00 00 00 00       	callq  529 <_Z20ChangeCustomerChoicev+0x1a8>
 529:	48 89 c2             	mov    %rax,%rdx
 52c:	8b 45 e4             	mov    -0x1c(%rbp),%eax
 52f:	89 42 20             	mov    %eax,0x20(%rdx)
 532:	48 8d 35 00 00 00 00 	lea    0x0(%rip),%rsi        # 539 <_Z20ChangeCustomerChoicev+0x1b8>
 539:	48 8d 3d 00 00 00 00 	lea    0x0(%rip),%rdi        # 540 <_Z20ChangeCustomerChoicev+0x1bf>
 540:	e8 00 00 00 00       	callq  545 <_Z20ChangeCustomerChoicev+0x1c4>
 545:	90                   	nop
 546:	48 8b 45 e8          	mov    -0x18(%rbp),%rax
 54a:	64 48 33 04 25 28 00 	xor    %fs:0x28,%rax
 551:	00 00 
 553:	74 05                	je     55a <_Z20ChangeCustomerChoicev+0x1d9>
 555:	e8 00 00 00 00       	callq  55a <_Z20ChangeCustomerChoicev+0x1d9>
 55a:	48 83 c4 18          	add    $0x18,%rsp
 55e:	5b                   	pop    %rbx
 55f:	5d                   	pop    %rbp
 560:	c3                   	retq   

0000000000000561 <main>:
 561:	55                   	push   %rbp
 562:	48 89 e5             	mov    %rsp,%rbp
 565:	48 83 ec 10          	sub    $0x10,%rsp
 569:	64 48 8b 04 25 28 00 	mov    %fs:0x28,%rax
 570:	00 00 
 572:	48 89 45 f8          	mov    %rax,-0x8(%rbp)
 576:	31 c0                	xor    %eax,%eax
 578:	48 8d 35 00 00 00 00 	lea    0x0(%rip),%rsi        # 57f <main+0x1e>
 57f:	48 8d 3d 00 00 00 00 	lea    0x0(%rip),%rdi        # 586 <main+0x25>
 586:	e8 00 00 00 00       	callq  58b <main+0x2a>
 58b:	e8 00 00 00 00       	callq  590 <main+0x2f>
 590:	89 45 f4             	mov    %eax,-0xc(%rbp)
 593:	48 8d 35 00 00 00 00 	lea    0x0(%rip),%rsi        # 59a <main+0x39>
 59a:	48 8d 3d 00 00 00 00 	lea    0x0(%rip),%rdi        # 5a1 <main+0x40>
 5a1:	e8 00 00 00 00       	callq  5a6 <main+0x45>
 5a6:	48 8d 35 00 00 00 00 	lea    0x0(%rip),%rsi        # 5ad <main+0x4c>
 5ad:	48 8d 3d 00 00 00 00 	lea    0x0(%rip),%rdi        # 5b4 <main+0x53>
 5b4:	e8 00 00 00 00       	callq  5b9 <main+0x58>
 5b9:	48 8d 35 00 00 00 00 	lea    0x0(%rip),%rsi        # 5c0 <main+0x5f>
 5c0:	48 8d 3d 00 00 00 00 	lea    0x0(%rip),%rdi        # 5c7 <main+0x66>
 5c7:	e8 00 00 00 00       	callq  5cc <main+0x6b>
 5cc:	48 8d 35 00 00 00 00 	lea    0x0(%rip),%rsi        # 5d3 <main+0x72>
 5d3:	48 8d 3d 00 00 00 00 	lea    0x0(%rip),%rdi        # 5da <main+0x79>
 5da:	e8 00 00 00 00       	callq  5df <main+0x7e>
 5df:	48 8d 35 00 00 00 00 	lea    0x0(%rip),%rsi        # 5e6 <main+0x85>
 5e6:	48 8d 3d 00 00 00 00 	lea    0x0(%rip),%rdi        # 5ed <main+0x8c>
 5ed:	e8 00 00 00 00       	callq  5f2 <main+0x91>
 5f2:	48 8d 45 f0          	lea    -0x10(%rbp),%rax
 5f6:	48 89 c6             	mov    %rax,%rsi
 5f9:	48 8d 3d 00 00 00 00 	lea    0x0(%rip),%rdi        # 600 <main+0x9f>
 600:	e8 00 00 00 00       	callq  605 <main+0xa4>
 605:	48 8b 10             	mov    (%rax),%rdx
 608:	48 83 ea 18          	sub    $0x18,%rdx
 60c:	48 8b 12             	mov    (%rdx),%rdx
 60f:	48 01 d0             	add    %rdx,%rax
 612:	48 89 c7             	mov    %rax,%rdi
 615:	e8 00 00 00 00       	callq  61a <main+0xb9>
 61a:	84 c0                	test   %al,%al
 61c:	75 0f                	jne    62d <main+0xcc>
 61e:	8b 45 f0             	mov    -0x10(%rbp),%eax
 621:	85 c0                	test   %eax,%eax
 623:	7e 08                	jle    62d <main+0xcc>
 625:	8b 45 f0             	mov    -0x10(%rbp),%eax
 628:	83 f8 03             	cmp    $0x3,%eax
 62b:	7e 07                	jle    634 <main+0xd3>
 62d:	b8 01 00 00 00       	mov    $0x1,%eax
 632:	eb 05                	jmp    639 <main+0xd8>
 634:	b8 00 00 00 00       	mov    $0x0,%eax
 639:	84 c0                	test   %al,%al
 63b:	74 42                	je     67f <main+0x11e>
 63d:	48 8d 35 00 00 00 00 	lea    0x0(%rip),%rsi        # 644 <main+0xe3>
 644:	48 8d 3d 00 00 00 00 	lea    0x0(%rip),%rdi        # 64b <main+0xea>
 64b:	e8 00 00 00 00       	callq  650 <main+0xef>
 650:	be 00 00 00 00       	mov    $0x0,%esi
 655:	48 8d 3d 00 00 00 00 	lea    0x0(%rip),%rdi        # 65c <main+0xfb>
 65c:	e8 00 00 00 00       	callq  661 <main+0x100>
 661:	e8 00 00 00 00       	callq  666 <main+0x105>
 666:	ba 0a 00 00 00       	mov    $0xa,%edx
 66b:	48 89 c6             	mov    %rax,%rsi
 66e:	48 8d 3d 00 00 00 00 	lea    0x0(%rip),%rdi        # 675 <main+0x114>
 675:	e8 00 00 00 00       	callq  67a <main+0x119>
 67a:	e9 73 ff ff ff       	jmpq   5f2 <main+0x91>
 67f:	48 8d 35 00 00 00 00 	lea    0x0(%rip),%rsi        # 686 <main+0x125>
 686:	48 8d 3d 00 00 00 00 	lea    0x0(%rip),%rdi        # 68d <main+0x12c>
 68d:	e8 00 00 00 00       	callq  692 <main+0x131>
 692:	8b 45 f0             	mov    -0x10(%rbp),%eax
 695:	83 f8 01             	cmp    $0x1,%eax
 698:	75 07                	jne    6a1 <main+0x140>
 69a:	e8 00 00 00 00       	callq  69f <main+0x13e>
 69f:	eb 0d                	jmp    6ae <main+0x14d>
 6a1:	8b 45 f0             	mov    -0x10(%rbp),%eax
 6a4:	83 f8 02             	cmp    $0x2,%eax
 6a7:	75 05                	jne    6ae <main+0x14d>
 6a9:	e8 00 00 00 00       	callq  6ae <main+0x14d>
 6ae:	8b 45 f0             	mov    -0x10(%rbp),%eax
 6b1:	83 f8 03             	cmp    $0x3,%eax
 6b4:	74 05                	je     6bb <main+0x15a>
 6b6:	e9 d8 fe ff ff       	jmpq   593 <main+0x32>
 6bb:	48 8d 35 00 00 00 00 	lea    0x0(%rip),%rsi        # 6c2 <main+0x161>
 6c2:	48 8d 3d 00 00 00 00 	lea    0x0(%rip),%rdi        # 6c9 <main+0x168>
 6c9:	e8 00 00 00 00       	callq  6ce <main+0x16d>
 6ce:	b8 00 00 00 00       	mov    $0x0,%eax
 6d3:	48 8b 4d f8          	mov    -0x8(%rbp),%rcx
 6d7:	64 48 33 0c 25 28 00 	xor    %fs:0x28,%rcx
 6de:	00 00 
 6e0:	74 05                	je     6e7 <main+0x186>
 6e2:	e8 00 00 00 00       	callq  6e7 <main+0x186>
 6e7:	c9                   	leaveq 
 6e8:	c3                   	retq   

00000000000006e9 <_Z41__static_initialization_and_destruction_0ii>:
 6e9:	55                   	push   %rbp
 6ea:	48 89 e5             	mov    %rsp,%rbp
 6ed:	41 57                	push   %r15
 6ef:	41 56                	push   %r14
 6f1:	41 55                	push   %r13
 6f3:	41 54                	push   %r12
 6f5:	53                   	push   %rbx
 6f6:	48 81 ec 78 01 00 00 	sub    $0x178,%rsp
 6fd:	89 bd 6c fe ff ff    	mov    %edi,-0x194(%rbp)
 703:	89 b5 68 fe ff ff    	mov    %esi,-0x198(%rbp)
 709:	64 48 8b 04 25 28 00 	mov    %fs:0x28,%rax
 710:	00 00 
 712:	48 89 45 c8          	mov    %rax,-0x38(%rbp)
 716:	31 c0                	xor    %eax,%eax
 718:	83 bd 6c fe ff ff 01 	cmpl   $0x1,-0x194(%rbp)
 71f:	0f 85 8d 05 00 00    	jne    cb2 <_Z41__static_initialization_and_destruction_0ii+0x5c9>
 725:	81 bd 68 fe ff ff ff 	cmpl   $0xffff,-0x198(%rbp)
 72c:	ff 00 00 
 72f:	0f 85 7d 05 00 00    	jne    cb2 <_Z41__static_initialization_and_destruction_0ii+0x5c9>
 735:	48 8d 3d 00 00 00 00 	lea    0x0(%rip),%rdi        # 73c <_Z41__static_initialization_and_destruction_0ii+0x53>
 73c:	e8 00 00 00 00       	callq  741 <_Z41__static_initialization_and_destruction_0ii+0x58>
 741:	48 8d 15 00 00 00 00 	lea    0x0(%rip),%rdx        # 748 <_Z41__static_initialization_and_destruction_0ii+0x5f>
 748:	48 8d 35 00 00 00 00 	lea    0x0(%rip),%rsi        # 74f <_Z41__static_initialization_and_destruction_0ii+0x66>
 74f:	48 8b 05 00 00 00 00 	mov    0x0(%rip),%rax        # 756 <_Z41__static_initialization_and_destruction_0ii+0x6d>
 756:	48 89 c7             	mov    %rax,%rdi
 759:	e8 00 00 00 00       	callq  75e <_Z41__static_initialization_and_destruction_0ii+0x75>
 75e:	48 8d 85 7a fe ff ff 	lea    -0x186(%rbp),%rax
 765:	48 89 c7             	mov    %rax,%rdi
 768:	e8 00 00 00 00       	callq  76d <_Z41__static_initialization_and_destruction_0ii+0x84>
 76d:	48 8d 95 7a fe ff ff 	lea    -0x186(%rbp),%rdx
 774:	48 8d 85 00 ff ff ff 	lea    -0x100(%rbp),%rax
 77b:	48 8d 35 00 00 00 00 	lea    0x0(%rip),%rsi        # 782 <_Z41__static_initialization_and_destruction_0ii+0x99>
 782:	48 89 c7             	mov    %rax,%rdi
 785:	e8 00 00 00 00       	callq  78a <_Z41__static_initialization_and_destruction_0ii+0xa1>
 78a:	c7 85 20 ff ff ff 01 	movl   $0x1,-0xe0(%rbp)
 791:	00 00 00 
 794:	48 8d 85 7b fe ff ff 	lea    -0x185(%rbp),%rax
 79b:	48 89 c7             	mov    %rax,%rdi
 79e:	e8 00 00 00 00       	callq  7a3 <_Z41__static_initialization_and_destruction_0ii+0xba>
 7a3:	48 8d 85 7b fe ff ff 	lea    -0x185(%rbp),%rax
 7aa:	48 8d 95 00 ff ff ff 	lea    -0x100(%rbp),%rdx
 7b1:	48 8d 4a 28          	lea    0x28(%rdx),%rcx
 7b5:	48 89 c2             	mov    %rax,%rdx
 7b8:	48 8d 35 00 00 00 00 	lea    0x0(%rip),%rsi        # 7bf <_Z41__static_initialization_and_destruction_0ii+0xd6>
 7bf:	48 89 cf             	mov    %rcx,%rdi
 7c2:	e8 00 00 00 00       	callq  7c7 <_Z41__static_initialization_and_destruction_0ii+0xde>
 7c7:	c7 85 48 ff ff ff 02 	movl   $0x2,-0xb8(%rbp)
 7ce:	00 00 00 
 7d1:	48 8d 85 7c fe ff ff 	lea    -0x184(%rbp),%rax
 7d8:	48 89 c7             	mov    %rax,%rdi
 7db:	e8 00 00 00 00       	callq  7e0 <_Z41__static_initialization_and_destruction_0ii+0xf7>
 7e0:	48 8d 85 7c fe ff ff 	lea    -0x184(%rbp),%rax
 7e7:	48 8d 95 00 ff ff ff 	lea    -0x100(%rbp),%rdx
 7ee:	48 8d 4a 50          	lea    0x50(%rdx),%rcx
 7f2:	48 89 c2             	mov    %rax,%rdx
 7f5:	48 8d 35 00 00 00 00 	lea    0x0(%rip),%rsi        # 7fc <_Z41__static_initialization_and_destruction_0ii+0x113>
 7fc:	48 89 cf             	mov    %rcx,%rdi
 7ff:	e8 00 00 00 00       	callq  804 <_Z41__static_initialization_and_destruction_0ii+0x11b>
 804:	c7 85 70 ff ff ff 01 	movl   $0x1,-0x90(%rbp)
 80b:	00 00 00 
 80e:	48 8d 85 7d fe ff ff 	lea    -0x183(%rbp),%rax
 815:	48 89 c7             	mov    %rax,%rdi
 818:	e8 00 00 00 00       	callq  81d <_Z41__static_initialization_and_destruction_0ii+0x134>
 81d:	48 8d 85 7d fe ff ff 	lea    -0x183(%rbp),%rax
 824:	48 8d 95 00 ff ff ff 	lea    -0x100(%rbp),%rdx
 82b:	48 8d 4a 78          	lea    0x78(%rdx),%rcx
 82f:	48 89 c2             	mov    %rax,%rdx
 832:	48 8d 35 00 00 00 00 	lea    0x0(%rip),%rsi        # 839 <_Z41__static_initialization_and_destruction_0ii+0x150>
 839:	48 89 cf             	mov    %rcx,%rdi
 83c:	e8 00 00 00 00       	callq  841 <_Z41__static_initialization_and_destruction_0ii+0x158>
 841:	c7 45 98 01 00 00 00 	movl   $0x1,-0x68(%rbp)
 848:	48 8d 85 7e fe ff ff 	lea    -0x182(%rbp),%rax
 84f:	48 89 c7             	mov    %rax,%rdi
 852:	e8 00 00 00 00       	callq  857 <_Z41__static_initialization_and_destruction_0ii+0x16e>
 857:	48 8d 85 7e fe ff ff 	lea    -0x182(%rbp),%rax
 85e:	48 8d 95 00 ff ff ff 	lea    -0x100(%rbp),%rdx
 865:	48 8d 8a a0 00 00 00 	lea    0xa0(%rdx),%rcx
 86c:	48 89 c2             	mov    %rax,%rdx
 86f:	48 8d 35 00 00 00 00 	lea    0x0(%rip),%rsi        # 876 <_Z41__static_initialization_and_destruction_0ii+0x18d>
 876:	48 89 cf             	mov    %rcx,%rdi
 879:	e8 00 00 00 00       	callq  87e <_Z41__static_initialization_and_destruction_0ii+0x195>
 87e:	c7 45 c0 02 00 00 00 	movl   $0x2,-0x40(%rbp)
 885:	48 8d 85 00 ff ff ff 	lea    -0x100(%rbp),%rax
 88c:	49 89 c6             	mov    %rax,%r14
 88f:	41 bf 05 00 00 00    	mov    $0x5,%r15d
 895:	48 8d 85 7f fe ff ff 	lea    -0x181(%rbp),%rax
 89c:	48 89 c7             	mov    %rax,%rdi
 89f:	e8 00 00 00 00       	callq  8a4 <_Z41__static_initialization_and_destruction_0ii+0x1bb>
 8a4:	48 8d 85 7f fe ff ff 	lea    -0x181(%rbp),%rax
 8ab:	4c 89 f6             	mov    %r14,%rsi
 8ae:	4c 89 ff             	mov    %r15,%rdi
 8b1:	4c 89 f2             	mov    %r14,%rdx
 8b4:	4c 89 f9             	mov    %r15,%rcx
 8b7:	48 89 ca             	mov    %rcx,%rdx
 8ba:	48 89 c1             	mov    %rax,%rcx
 8bd:	48 8d 3d 00 00 00 00 	lea    0x0(%rip),%rdi        # 8c4 <_Z41__static_initialization_and_destruction_0ii+0x1db>
 8c4:	e8 00 00 00 00       	callq  8c9 <_Z41__static_initialization_and_destruction_0ii+0x1e0>
 8c9:	48 8d 85 7f fe ff ff 	lea    -0x181(%rbp),%rax
 8d0:	48 89 c7             	mov    %rax,%rdi
 8d3:	e8 00 00 00 00       	callq  8d8 <_Z41__static_initialization_and_destruction_0ii+0x1ef>
 8d8:	48 8d 9d 00 ff ff ff 	lea    -0x100(%rbp),%rbx
 8df:	48 81 c3 c8 00 00 00 	add    $0xc8,%rbx
 8e6:	48 8d 85 00 ff ff ff 	lea    -0x100(%rbp),%rax
 8ed:	48 39 c3             	cmp    %rax,%rbx
 8f0:	74 0e                	je     900 <_Z41__static_initialization_and_destruction_0ii+0x217>
 8f2:	48 83 eb 28          	sub    $0x28,%rbx
 8f6:	48 89 df             	mov    %rbx,%rdi
 8f9:	e8 00 00 00 00       	callq  8fe <_Z41__static_initialization_and_destruction_0ii+0x215>
 8fe:	eb e6                	jmp    8e6 <_Z41__static_initialization_and_destruction_0ii+0x1fd>
 900:	48 8d 85 7e fe ff ff 	lea    -0x182(%rbp),%rax
 907:	48 89 c7             	mov    %rax,%rdi
 90a:	e8 00 00 00 00       	callq  90f <_Z41__static_initialization_and_destruction_0ii+0x226>
 90f:	48 8d 85 7d fe ff ff 	lea    -0x183(%rbp),%rax
 916:	48 89 c7             	mov    %rax,%rdi
 919:	e8 00 00 00 00       	callq  91e <_Z41__static_initialization_and_destruction_0ii+0x235>
 91e:	48 8d 85 7c fe ff ff 	lea    -0x184(%rbp),%rax
 925:	48 89 c7             	mov    %rax,%rdi
 928:	e8 00 00 00 00       	callq  92d <_Z41__static_initialization_and_destruction_0ii+0x244>
 92d:	48 8d 85 7b fe ff ff 	lea    -0x185(%rbp),%rax
 934:	48 89 c7             	mov    %rax,%rdi
 937:	e8 00 00 00 00       	callq  93c <_Z41__static_initialization_and_destruction_0ii+0x253>
 93c:	48 8d 85 7a fe ff ff 	lea    -0x186(%rbp),%rax
 943:	48 89 c7             	mov    %rax,%rdi
 946:	e8 00 00 00 00       	callq  94b <_Z41__static_initialization_and_destruction_0ii+0x262>
 94b:	48 8d 15 00 00 00 00 	lea    0x0(%rip),%rdx        # 952 <_Z41__static_initialization_and_destruction_0ii+0x269>
 952:	48 8d 35 00 00 00 00 	lea    0x0(%rip),%rsi        # 959 <_Z41__static_initialization_and_destruction_0ii+0x270>
 959:	48 8d 3d 00 00 00 00 	lea    0x0(%rip),%rdi        # 960 <_Z41__static_initialization_and_destruction_0ii+0x277>
 960:	e8 00 00 00 00       	callq  965 <_Z41__static_initialization_and_destruction_0ii+0x27c>
 965:	48 8d 85 7b fe ff ff 	lea    -0x185(%rbp),%rax
 96c:	48 89 c7             	mov    %rax,%rdi
 96f:	e8 00 00 00 00       	callq  974 <_Z41__static_initialization_and_destruction_0ii+0x28b>
 974:	48 8d 95 7b fe ff ff 	lea    -0x185(%rbp),%rdx
 97b:	48 8d 85 80 fe ff ff 	lea    -0x180(%rbp),%rax
 982:	48 8d 35 00 00 00 00 	lea    0x0(%rip),%rsi        # 989 <_Z41__static_initialization_and_destruction_0ii+0x2a0>
 989:	48 89 c7             	mov    %rax,%rdi
 98c:	e8 00 00 00 00       	callq  991 <_Z41__static_initialization_and_destruction_0ii+0x2a8>
 991:	48 8d 85 a0 fe ff ff 	lea    -0x160(%rbp),%rax
 998:	48 8d 95 80 fe ff ff 	lea    -0x180(%rbp),%rdx
 99f:	48 89 d6             	mov    %rdx,%rsi
 9a2:	48 89 c7             	mov    %rax,%rdi
 9a5:	e8 00 00 00 00       	callq  9aa <_Z41__static_initialization_and_destruction_0ii+0x2c1>
 9aa:	48 8d 95 a0 fe ff ff 	lea    -0x160(%rbp),%rdx
 9b1:	48 8d 85 00 ff ff ff 	lea    -0x100(%rbp),%rax
 9b8:	48 8d 35 00 00 00 00 	lea    0x0(%rip),%rsi        # 9bf <_Z41__static_initialization_and_destruction_0ii+0x2d6>
 9bf:	48 89 c7             	mov    %rax,%rdi
 9c2:	e8 00 00 00 00       	callq  9c7 <_Z41__static_initialization_and_destruction_0ii+0x2de>
 9c7:	48 8d 85 7c fe ff ff 	lea    -0x184(%rbp),%rax
 9ce:	48 89 c7             	mov    %rax,%rdi
 9d1:	e8 00 00 00 00       	callq  9d6 <_Z41__static_initialization_and_destruction_0ii+0x2ed>
 9d6:	48 8d 95 7c fe ff ff 	lea    -0x184(%rbp),%rdx
 9dd:	48 8d 85 c0 fe ff ff 	lea    -0x140(%rbp),%rax
 9e4:	48 8d 35 00 00 00 00 	lea    0x0(%rip),%rsi        # 9eb <_Z41__static_initialization_and_destruction_0ii+0x302>
 9eb:	48 89 c7             	mov    %rax,%rdi
 9ee:	e8 00 00 00 00       	callq  9f3 <_Z41__static_initialization_and_destruction_0ii+0x30a>
 9f3:	48 8d 85 e0 fe ff ff 	lea    -0x120(%rbp),%rax
 9fa:	48 8d 95 c0 fe ff ff 	lea    -0x140(%rbp),%rdx
 a01:	48 89 d6             	mov    %rdx,%rsi
 a04:	48 89 c7             	mov    %rax,%rdi
 a07:	e8 00 00 00 00       	callq  a0c <_Z41__static_initialization_and_destruction_0ii+0x323>
 a0c:	48 8d 85 e0 fe ff ff 	lea    -0x120(%rbp),%rax
 a13:	48 8d 95 00 ff ff ff 	lea    -0x100(%rbp),%rdx
 a1a:	48 8d 4a 40          	lea    0x40(%rdx),%rcx
 a1e:	48 89 c2             	mov    %rax,%rdx
 a21:	48 8d 35 00 00 00 00 	lea    0x0(%rip),%rsi        # a28 <_Z41__static_initialization_and_destruction_0ii+0x33f>
 a28:	48 89 cf             	mov    %rcx,%rdi
 a2b:	e8 00 00 00 00       	callq  a30 <_Z41__static_initialization_and_destruction_0ii+0x347>
 a30:	48 8d 85 00 ff ff ff 	lea    -0x100(%rbp),%rax
 a37:	49 89 c4             	mov    %rax,%r12
 a3a:	41 bd 02 00 00 00    	mov    $0x2,%r13d
 a40:	48 8d 85 7f fe ff ff 	lea    -0x181(%rbp),%rax
 a47:	48 89 c7             	mov    %rax,%rdi
 a4a:	e8 00 00 00 00       	callq  a4f <_Z41__static_initialization_and_destruction_0ii+0x366>
 a4f:	48 8d bd 7e fe ff ff 	lea    -0x182(%rbp),%rdi
 a56:	48 8d b5 7d fe ff ff 	lea    -0x183(%rbp),%rsi
 a5d:	4c 89 e1             	mov    %r12,%rcx
 a60:	4c 89 eb             	mov    %r13,%rbx
 a63:	4c 89 e0             	mov    %r12,%rax
 a66:	4c 89 ea             	mov    %r13,%rdx
 a69:	49 89 ca             	mov    %rcx,%r10
 a6c:	48 83 ec 08          	sub    $0x8,%rsp
 a70:	48 8d 85 7f fe ff ff 	lea    -0x181(%rbp),%rax
 a77:	50                   	push   %rax
 a78:	49 89 f9             	mov    %rdi,%r9
 a7b:	49 89 f0             	mov    %rsi,%r8
 a7e:	b9 00 00 00 00       	mov    $0x0,%ecx
 a83:	4c 89 d6             	mov    %r10,%rsi
 a86:	48 8d 3d 00 00 00 00 	lea    0x0(%rip),%rdi        # a8d <_Z41__static_initialization_and_destruction_0ii+0x3a4>
 a8d:	e8 00 00 00 00       	callq  a92 <_Z41__static_initialization_and_destruction_0ii+0x3a9>
 a92:	48 83 c4 10          	add    $0x10,%rsp
 a96:	48 8d 85 7f fe ff ff 	lea    -0x181(%rbp),%rax
 a9d:	48 89 c7             	mov    %rax,%rdi
 aa0:	e8 00 00 00 00       	callq  aa5 <_Z41__static_initialization_and_destruction_0ii+0x3bc>
 aa5:	48 8d 9d 00 ff ff ff 	lea    -0x100(%rbp),%rbx
 aac:	48 83 eb 80          	sub    $0xffffffffffffff80,%rbx
 ab0:	48 8d 85 00 ff ff ff 	lea    -0x100(%rbp),%rax
 ab7:	48 39 c3             	cmp    %rax,%rbx
 aba:	74 0e                	je     aca <_Z41__static_initialization_and_destruction_0ii+0x3e1>
 abc:	48 83 eb 40          	sub    $0x40,%rbx
 ac0:	48 89 df             	mov    %rbx,%rdi
 ac3:	e8 00 00 00 00       	callq  ac8 <_Z41__static_initialization_and_destruction_0ii+0x3df>
 ac8:	eb e6                	jmp    ab0 <_Z41__static_initialization_and_destruction_0ii+0x3c7>
 aca:	48 8d 85 e0 fe ff ff 	lea    -0x120(%rbp),%rax
 ad1:	48 89 c7             	mov    %rax,%rdi
 ad4:	e8 00 00 00 00       	callq  ad9 <_Z41__static_initialization_and_destruction_0ii+0x3f0>
 ad9:	48 8d 85 c0 fe ff ff 	lea    -0x140(%rbp),%rax
 ae0:	48 89 c7             	mov    %rax,%rdi
 ae3:	e8 00 00 00 00       	callq  ae8 <_Z41__static_initialization_and_destruction_0ii+0x3ff>
 ae8:	48 8d 85 7c fe ff ff 	lea    -0x184(%rbp),%rax
 aef:	48 89 c7             	mov    %rax,%rdi
 af2:	e8 00 00 00 00       	callq  af7 <_Z41__static_initialization_and_destruction_0ii+0x40e>
 af7:	48 8d 85 a0 fe ff ff 	lea    -0x160(%rbp),%rax
 afe:	48 89 c7             	mov    %rax,%rdi
 b01:	e8 00 00 00 00       	callq  b06 <_Z41__static_initialization_and_destruction_0ii+0x41d>
 b06:	48 8d 85 80 fe ff ff 	lea    -0x180(%rbp),%rax
 b0d:	48 89 c7             	mov    %rax,%rdi
 b10:	e8 00 00 00 00       	callq  b15 <_Z41__static_initialization_and_destruction_0ii+0x42c>
 b15:	48 8d 85 7b fe ff ff 	lea    -0x185(%rbp),%rax
 b1c:	48 89 c7             	mov    %rax,%rdi
 b1f:	e8 00 00 00 00       	callq  b24 <_Z41__static_initialization_and_destruction_0ii+0x43b>
 b24:	48 8d 15 00 00 00 00 	lea    0x0(%rip),%rdx        # b2b <_Z41__static_initialization_and_destruction_0ii+0x442>
 b2b:	48 8d 35 00 00 00 00 	lea    0x0(%rip),%rsi        # b32 <_Z41__static_initialization_and_destruction_0ii+0x449>
 b32:	48 8d 3d 00 00 00 00 	lea    0x0(%rip),%rdi        # b39 <_Z41__static_initialization_and_destruction_0ii+0x450>
 b39:	e8 00 00 00 00       	callq  b3e <_Z41__static_initialization_and_destruction_0ii+0x455>
 b3e:	e9 6f 01 00 00       	jmpq   cb2 <_Z41__static_initialization_and_destruction_0ii+0x5c9>
 b43:	48 89 c3             	mov    %rax,%rbx
 b46:	48 8d 85 7f fe ff ff 	lea    -0x181(%rbp),%rax
 b4d:	48 89 c7             	mov    %rax,%rdi
 b50:	e8 00 00 00 00       	callq  b55 <_Z41__static_initialization_and_destruction_0ii+0x46c>
 b55:	49 89 dc             	mov    %rbx,%r12
 b58:	48 8d 9d 00 ff ff ff 	lea    -0x100(%rbp),%rbx
 b5f:	48 81 c3 c8 00 00 00 	add    $0xc8,%rbx
 b66:	48 8d 85 00 ff ff ff 	lea    -0x100(%rbp),%rax
 b6d:	48 39 c3             	cmp    %rax,%rbx
 b70:	74 0e                	je     b80 <_Z41__static_initialization_and_destruction_0ii+0x497>
 b72:	48 83 eb 28          	sub    $0x28,%rbx
 b76:	48 89 df             	mov    %rbx,%rdi
 b79:	e8 00 00 00 00       	callq  b7e <_Z41__static_initialization_and_destruction_0ii+0x495>
 b7e:	eb e6                	jmp    b66 <_Z41__static_initialization_and_destruction_0ii+0x47d>
 b80:	4c 89 e3             	mov    %r12,%rbx
 b83:	eb 03                	jmp    b88 <_Z41__static_initialization_and_destruction_0ii+0x49f>
 b85:	48 89 c3             	mov    %rax,%rbx
 b88:	48 8d 85 7e fe ff ff 	lea    -0x182(%rbp),%rax
 b8f:	48 89 c7             	mov    %rax,%rdi
 b92:	e8 00 00 00 00       	callq  b97 <_Z41__static_initialization_and_destruction_0ii+0x4ae>
 b97:	eb 03                	jmp    b9c <_Z41__static_initialization_and_destruction_0ii+0x4b3>
 b99:	48 89 c3             	mov    %rax,%rbx
 b9c:	48 8d 85 7d fe ff ff 	lea    -0x183(%rbp),%rax
 ba3:	48 89 c7             	mov    %rax,%rdi
 ba6:	e8 00 00 00 00       	callq  bab <_Z41__static_initialization_and_destruction_0ii+0x4c2>
 bab:	eb 03                	jmp    bb0 <_Z41__static_initialization_and_destruction_0ii+0x4c7>
 bad:	48 89 c3             	mov    %rax,%rbx
 bb0:	48 8d 85 7c fe ff ff 	lea    -0x184(%rbp),%rax
 bb7:	48 89 c7             	mov    %rax,%rdi
 bba:	e8 00 00 00 00       	callq  bbf <_Z41__static_initialization_and_destruction_0ii+0x4d6>
 bbf:	eb 03                	jmp    bc4 <_Z41__static_initialization_and_destruction_0ii+0x4db>
 bc1:	48 89 c3             	mov    %rax,%rbx
 bc4:	48 8d 85 7b fe ff ff 	lea    -0x185(%rbp),%rax
 bcb:	48 89 c7             	mov    %rax,%rdi
 bce:	e8 00 00 00 00       	callq  bd3 <_Z41__static_initialization_and_destruction_0ii+0x4ea>
 bd3:	eb 03                	jmp    bd8 <_Z41__static_initialization_and_destruction_0ii+0x4ef>
 bd5:	48 89 c3             	mov    %rax,%rbx
 bd8:	48 8d 85 7a fe ff ff 	lea    -0x186(%rbp),%rax
 bdf:	48 89 c7             	mov    %rax,%rdi
 be2:	e8 00 00 00 00       	callq  be7 <_Z41__static_initialization_and_destruction_0ii+0x4fe>
 be7:	48 89 d8             	mov    %rbx,%rax
 bea:	48 89 c7             	mov    %rax,%rdi
 bed:	e8 00 00 00 00       	callq  bf2 <_Z41__static_initialization_and_destruction_0ii+0x509>
 bf2:	48 89 c3             	mov    %rax,%rbx
 bf5:	48 8d 85 7f fe ff ff 	lea    -0x181(%rbp),%rax
 bfc:	48 89 c7             	mov    %rax,%rdi
 bff:	e8 00 00 00 00       	callq  c04 <_Z41__static_initialization_and_destruction_0ii+0x51b>
 c04:	49 89 dc             	mov    %rbx,%r12
 c07:	48 8d 9d 00 ff ff ff 	lea    -0x100(%rbp),%rbx
 c0e:	48 83 eb 80          	sub    $0xffffffffffffff80,%rbx
 c12:	48 8d 85 00 ff ff ff 	lea    -0x100(%rbp),%rax
 c19:	48 39 c3             	cmp    %rax,%rbx
 c1c:	74 0e                	je     c2c <_Z41__static_initialization_and_destruction_0ii+0x543>
 c1e:	48 83 eb 40          	sub    $0x40,%rbx
 c22:	48 89 df             	mov    %rbx,%rdi
 c25:	e8 00 00 00 00       	callq  c2a <_Z41__static_initialization_and_destruction_0ii+0x541>
 c2a:	eb e6                	jmp    c12 <_Z41__static_initialization_and_destruction_0ii+0x529>
 c2c:	4c 89 e3             	mov    %r12,%rbx
 c2f:	eb 03                	jmp    c34 <_Z41__static_initialization_and_destruction_0ii+0x54b>
 c31:	48 89 c3             	mov    %rax,%rbx
 c34:	48 8d 85 e0 fe ff ff 	lea    -0x120(%rbp),%rax
 c3b:	48 89 c7             	mov    %rax,%rdi
 c3e:	e8 00 00 00 00       	callq  c43 <_Z41__static_initialization_and_destruction_0ii+0x55a>
 c43:	eb 03                	jmp    c48 <_Z41__static_initialization_and_destruction_0ii+0x55f>
 c45:	48 89 c3             	mov    %rax,%rbx
 c48:	48 8d 85 c0 fe ff ff 	lea    -0x140(%rbp),%rax
 c4f:	48 89 c7             	mov    %rax,%rdi
 c52:	e8 00 00 00 00       	callq  c57 <_Z41__static_initialization_and_destruction_0ii+0x56e>
 c57:	eb 03                	jmp    c5c <_Z41__static_initialization_and_destruction_0ii+0x573>
 c59:	48 89 c3             	mov    %rax,%rbx
 c5c:	48 8d 85 7c fe ff ff 	lea    -0x184(%rbp),%rax
 c63:	48 89 c7             	mov    %rax,%rdi
 c66:	e8 00 00 00 00       	callq  c6b <_Z41__static_initialization_and_destruction_0ii+0x582>
 c6b:	eb 03                	jmp    c70 <_Z41__static_initialization_and_destruction_0ii+0x587>
 c6d:	48 89 c3             	mov    %rax,%rbx
 c70:	48 8d 85 a0 fe ff ff 	lea    -0x160(%rbp),%rax
 c77:	48 89 c7             	mov    %rax,%rdi
 c7a:	e8 00 00 00 00       	callq  c7f <_Z41__static_initialization_and_destruction_0ii+0x596>
 c7f:	eb 03                	jmp    c84 <_Z41__static_initialization_and_destruction_0ii+0x59b>
 c81:	48 89 c3             	mov    %rax,%rbx
 c84:	48 8d 85 80 fe ff ff 	lea    -0x180(%rbp),%rax
 c8b:	48 89 c7             	mov    %rax,%rdi
 c8e:	e8 00 00 00 00       	callq  c93 <_Z41__static_initialization_and_destruction_0ii+0x5aa>
 c93:	eb 03                	jmp    c98 <_Z41__static_initialization_and_destruction_0ii+0x5af>
 c95:	48 89 c3             	mov    %rax,%rbx
 c98:	48 8d 85 7b fe ff ff 	lea    -0x185(%rbp),%rax
 c9f:	48 89 c7             	mov    %rax,%rdi
 ca2:	e8 00 00 00 00       	callq  ca7 <_Z41__static_initialization_and_destruction_0ii+0x5be>
 ca7:	48 89 d8             	mov    %rbx,%rax
 caa:	48 89 c7             	mov    %rax,%rdi
 cad:	e8 00 00 00 00       	callq  cb2 <_Z41__static_initialization_and_destruction_0ii+0x5c9>
 cb2:	48 8b 45 c8          	mov    -0x38(%rbp),%rax
 cb6:	64 48 33 04 25 28 00 	xor    %fs:0x28,%rax
 cbd:	00 00 
 cbf:	74 05                	je     cc6 <_Z41__static_initialization_and_destruction_0ii+0x5dd>
 cc1:	e8 00 00 00 00       	callq  cc6 <_Z41__static_initialization_and_destruction_0ii+0x5dd>
 cc6:	48 8d 65 d8          	lea    -0x28(%rbp),%rsp
 cca:	5b                   	pop    %rbx
 ccb:	41 5c                	pop    %r12
 ccd:	41 5d                	pop    %r13
 ccf:	41 5e                	pop    %r14
 cd1:	41 5f                	pop    %r15
 cd3:	5d                   	pop    %rbp
 cd4:	c3                   	retq   

0000000000000cd5 <_GLOBAL__sub_I_clients>:
 cd5:	55                   	push   %rbp
 cd6:	48 89 e5             	mov    %rsp,%rbp
 cd9:	be ff ff 00 00       	mov    $0xffff,%esi
 cde:	bf 01 00 00 00       	mov    $0x1,%edi
 ce3:	e8 01 fa ff ff       	callq  6e9 <_Z41__static_initialization_and_destruction_0ii>
 ce8:	5d                   	pop    %rbp
 ce9:	c3                   	retq   

Disassembly of section .text._ZnwmPv:

0000000000000000 <_ZnwmPv>:
   0:	55                   	push   %rbp
   1:	48 89 e5             	mov    %rsp,%rbp
   4:	48 89 7d f8          	mov    %rdi,-0x8(%rbp)
   8:	48 89 75 f0          	mov    %rsi,-0x10(%rbp)
   c:	48 8b 45 f0          	mov    -0x10(%rbp),%rax
  10:	5d                   	pop    %rbp
  11:	c3                   	retq   

Disassembly of section .text._ZdlPvS_:

0000000000000000 <_ZdlPvS_>:
   0:	55                   	push   %rbp
   1:	48 89 e5             	mov    %rsp,%rbp
   4:	48 89 7d f8          	mov    %rdi,-0x8(%rbp)
   8:	48 89 75 f0          	mov    %rsi,-0x10(%rbp)
   c:	90                   	nop
   d:	5d                   	pop    %rbp
   e:	c3                   	retq   

Disassembly of section .text._ZNSt11char_traitsIcE7compareEPKcS2_m:

0000000000000000 <_ZNSt11char_traitsIcE7compareEPKcS2_m>:
   0:	55                   	push   %rbp
   1:	48 89 e5             	mov    %rsp,%rbp
   4:	48 83 ec 20          	sub    $0x20,%rsp
   8:	48 89 7d f8          	mov    %rdi,-0x8(%rbp)
   c:	48 89 75 f0          	mov    %rsi,-0x10(%rbp)
  10:	48 89 55 e8          	mov    %rdx,-0x18(%rbp)
  14:	48 83 7d e8 00       	cmpq   $0x0,-0x18(%rbp)
  19:	75 07                	jne    22 <_ZNSt11char_traitsIcE7compareEPKcS2_m+0x22>
  1b:	b8 00 00 00 00       	mov    $0x0,%eax
  20:	eb 17                	jmp    39 <_ZNSt11char_traitsIcE7compareEPKcS2_m+0x39>
  22:	48 8b 55 e8          	mov    -0x18(%rbp),%rdx
  26:	48 8b 4d f0          	mov    -0x10(%rbp),%rcx
  2a:	48 8b 45 f8          	mov    -0x8(%rbp),%rax
  2e:	48 89 ce             	mov    %rcx,%rsi
  31:	48 89 c7             	mov    %rax,%rdi
  34:	e8 00 00 00 00       	callq  39 <_ZNSt11char_traitsIcE7compareEPKcS2_m+0x39>
  39:	c9                   	leaveq 
  3a:	c3                   	retq   

Disassembly of section .text._ZNSt7__cxx119to_stringEm:

0000000000000000 <_ZNSt7__cxx119to_stringEm>:
   0:	55                   	push   %rbp
   1:	48 89 e5             	mov    %rsp,%rbp
   4:	48 83 ec 20          	sub    $0x20,%rsp
   8:	48 89 7d e8          	mov    %rdi,-0x18(%rbp)
   c:	48 89 75 e0          	mov    %rsi,-0x20(%rbp)
  10:	64 48 8b 04 25 28 00 	mov    %fs:0x28,%rax
  17:	00 00 
  19:	48 89 45 f8          	mov    %rax,-0x8(%rbp)
  1d:	31 c0                	xor    %eax,%eax
  1f:	48 8b 45 e8          	mov    -0x18(%rbp),%rax
  23:	48 8b 55 e0          	mov    -0x20(%rbp),%rdx
  27:	49 89 d0             	mov    %rdx,%r8
  2a:	48 8d 0d 00 00 00 00 	lea    0x0(%rip),%rcx        # 31 <_ZNSt7__cxx119to_stringEm+0x31>
  31:	ba 20 00 00 00       	mov    $0x20,%edx
  36:	48 8b 35 00 00 00 00 	mov    0x0(%rip),%rsi        # 3d <_ZNSt7__cxx119to_stringEm+0x3d>
  3d:	48 89 c7             	mov    %rax,%rdi
  40:	b8 00 00 00 00       	mov    $0x0,%eax
  45:	e8 00 00 00 00       	callq  4a <_ZNSt7__cxx119to_stringEm+0x4a>
  4a:	48 8b 45 e8          	mov    -0x18(%rbp),%rax
  4e:	48 8b 4d f8          	mov    -0x8(%rbp),%rcx
  52:	64 48 33 0c 25 28 00 	xor    %fs:0x28,%rcx
  59:	00 00 
  5b:	74 05                	je     62 <_ZNSt7__cxx119to_stringEm+0x62>
  5d:	e8 00 00 00 00       	callq  62 <_ZNSt7__cxx119to_stringEm+0x62>
  62:	c9                   	leaveq 
  63:	c3                   	retq   

Disassembly of section .text._ZNSt10_Hash_impl4hashEPKvmm:

0000000000000000 <_ZNSt10_Hash_impl4hashEPKvmm>:
   0:	55                   	push   %rbp
   1:	48 89 e5             	mov    %rsp,%rbp
   4:	48 83 ec 20          	sub    $0x20,%rsp
   8:	48 89 7d f8          	mov    %rdi,-0x8(%rbp)
   c:	48 89 75 f0          	mov    %rsi,-0x10(%rbp)
  10:	48 89 55 e8          	mov    %rdx,-0x18(%rbp)
  14:	48 8b 55 e8          	mov    -0x18(%rbp),%rdx
  18:	48 8b 4d f0          	mov    -0x10(%rbp),%rcx
  1c:	48 8b 45 f8          	mov    -0x8(%rbp),%rax
  20:	48 89 ce             	mov    %rcx,%rsi
  23:	48 89 c7             	mov    %rax,%rdi
  26:	e8 00 00 00 00       	callq  2b <_ZNSt10_Hash_impl4hashEPKvmm+0x2b>
  2b:	c9                   	leaveq 
  2c:	c3                   	retq   

Disassembly of section .text._ZNKSt4hashINSt7__cxx1112basic_stringIcSt11char_traitsIcESaIcEEEEclERKS5_:

0000000000000000 <_ZNKSt4hashINSt7__cxx1112basic_stringIcSt11char_traitsIcESaIcEEEEclERKS5_>:
   0:	55                   	push   %rbp
   1:	48 89 e5             	mov    %rsp,%rbp
   4:	53                   	push   %rbx
   5:	48 83 ec 18          	sub    $0x18,%rsp
   9:	48 89 7d e8          	mov    %rdi,-0x18(%rbp)
   d:	48 89 75 e0          	mov    %rsi,-0x20(%rbp)
  11:	48 8b 45 e0          	mov    -0x20(%rbp),%rax
  15:	48 89 c7             	mov    %rax,%rdi
  18:	e8 00 00 00 00       	callq  1d <_ZNKSt4hashINSt7__cxx1112basic_stringIcSt11char_traitsIcESaIcEEEEclERKS5_+0x1d>
  1d:	48 89 c3             	mov    %rax,%rbx
  20:	48 8b 45 e0          	mov    -0x20(%rbp),%rax
  24:	48 89 c7             	mov    %rax,%rdi
  27:	e8 00 00 00 00       	callq  2c <_ZNKSt4hashINSt7__cxx1112basic_stringIcSt11char_traitsIcESaIcEEEEclERKS5_+0x2c>
  2c:	ba 07 69 0f c7       	mov    $0xc70f6907,%edx
  31:	48 89 de             	mov    %rbx,%rsi
  34:	48 89 c7             	mov    %rax,%rdi
  37:	e8 00 00 00 00       	callq  3c <_ZNKSt4hashINSt7__cxx1112basic_stringIcSt11char_traitsIcESaIcEEEEclERKS5_+0x3c>
  3c:	48 83 c4 18          	add    $0x18,%rsp
  40:	5b                   	pop    %rbx
  41:	5d                   	pop    %rbp
  42:	c3                   	retq   

Disassembly of section .text._ZNSt8__detail15_Hash_node_baseC2Ev:

0000000000000000 <_ZNSt8__detail15_Hash_node_baseC1Ev>:
   0:	55                   	push   %rbp
   1:	48 89 e5             	mov    %rsp,%rbp
   4:	48 89 7d f8          	mov    %rdi,-0x8(%rbp)
   8:	48 8b 45 f8          	mov    -0x8(%rbp),%rax
   c:	48 c7 00 00 00 00 00 	movq   $0x0,(%rax)
  13:	90                   	nop
  14:	5d                   	pop    %rbp
  15:	c3                   	retq   

Disassembly of section .text._ZNKSt8__detail18_Mod_range_hashingclEmm:

0000000000000000 <_ZNKSt8__detail18_Mod_range_hashingclEmm>:
   0:	55                   	push   %rbp
   1:	48 89 e5             	mov    %rsp,%rbp
   4:	48 89 7d f8          	mov    %rdi,-0x8(%rbp)
   8:	48 89 75 f0          	mov    %rsi,-0x10(%rbp)
   c:	48 89 55 e8          	mov    %rdx,-0x18(%rbp)
  10:	48 8b 45 f0          	mov    -0x10(%rbp),%rax
  14:	ba 00 00 00 00       	mov    $0x0,%edx
  19:	48 f7 75 e8          	divq   -0x18(%rbp)
  1d:	48 89 d0             	mov    %rdx,%rax
  20:	5d                   	pop    %rbp
  21:	c3                   	retq   

Disassembly of section .text._ZNSt8__detail20_Prime_rehash_policyC2Ef:

0000000000000000 <_ZNSt8__detail20_Prime_rehash_policyC1Ef>:
   0:	55                   	push   %rbp
   1:	48 89 e5             	mov    %rsp,%rbp
   4:	48 89 7d f8          	mov    %rdi,-0x8(%rbp)
   8:	f3 0f 11 45 f4       	movss  %xmm0,-0xc(%rbp)
   d:	48 8b 45 f8          	mov    -0x8(%rbp),%rax
  11:	f3 0f 10 45 f4       	movss  -0xc(%rbp),%xmm0
  16:	f3 0f 11 00          	movss  %xmm0,(%rax)
  1a:	48 8b 45 f8          	mov    -0x8(%rbp),%rax
  1e:	48 c7 40 08 00 00 00 	movq   $0x0,0x8(%rax)
  25:	00 
  26:	90                   	nop
  27:	5d                   	pop    %rbp
  28:	c3                   	retq   

Disassembly of section .text._ZNKSt8__detail20_Prime_rehash_policy19_M_bkt_for_elementsEm:

0000000000000000 <_ZNKSt8__detail20_Prime_rehash_policy19_M_bkt_for_elementsEm>:
   0:	55                   	push   %rbp
   1:	48 89 e5             	mov    %rsp,%rbp
   4:	48 89 7d f8          	mov    %rdi,-0x8(%rbp)
   8:	48 89 75 f0          	mov    %rsi,-0x10(%rbp)
   c:	df 6d f0             	fildll -0x10(%rbp)
   f:	48 83 7d f0 00       	cmpq   $0x0,-0x10(%rbp)
  14:	79 08                	jns    1e <_ZNKSt8__detail20_Prime_rehash_policy19_M_bkt_for_elementsEm+0x1e>
  16:	db 2d 00 00 00 00    	fldt   0x0(%rip)        # 1c <_ZNKSt8__detail20_Prime_rehash_policy19_M_bkt_for_elementsEm+0x1c>
  1c:	de c1                	faddp  %st,%st(1)
  1e:	48 8b 45 f8          	mov    -0x8(%rbp),%rax
  22:	d9 00                	flds   (%rax)
  24:	de f9                	fdivrp %st,%st(1)
  26:	dd 5d e8             	fstpl  -0x18(%rbp)
  29:	f2 0f 10 65 e8       	movsd  -0x18(%rbp),%xmm4
  2e:	f2 0f 10 1d 00 00 00 	movsd  0x0(%rip),%xmm3        # 36 <_ZNKSt8__detail20_Prime_rehash_policy19_M_bkt_for_elementsEm+0x36>
  35:	00 
  36:	66 0f 28 c4          	movapd %xmm4,%xmm0
  3a:	f3 0f 7e 0d 00 00 00 	movq   0x0(%rip),%xmm1        # 42 <_ZNKSt8__detail20_Prime_rehash_policy19_M_bkt_for_elementsEm+0x42>
  41:	00 
  42:	66 0f 28 d1          	movapd %xmm1,%xmm2
  46:	66 0f 28 c8          	movapd %xmm0,%xmm1
  4a:	66 0f 54 ca          	andpd  %xmm2,%xmm1
  4e:	66 0f 2e d9          	ucomisd %xmm1,%xmm3
  52:	76 2b                	jbe    7f <_ZNKSt8__detail20_Prime_rehash_policy19_M_bkt_for_elementsEm+0x7f>
  54:	f2 48 0f 2c c0       	cvttsd2si %xmm0,%rax
  59:	f2 48 0f 2a c8       	cvtsi2sd %rax,%xmm1
  5e:	f2 0f 10 1d 00 00 00 	movsd  0x0(%rip),%xmm3        # 66 <_ZNKSt8__detail20_Prime_rehash_policy19_M_bkt_for_elementsEm+0x66>
  65:	00 
  66:	f2 0f c2 c1 06       	cmpnlesd %xmm1,%xmm0
  6b:	66 0f 54 c3          	andpd  %xmm3,%xmm0
  6f:	f2 0f 58 c1          	addsd  %xmm1,%xmm0
  73:	66 0f 55 d4          	andnpd %xmm4,%xmm2
  77:	66 0f 28 ca          	movapd %xmm2,%xmm1
  7b:	66 0f 56 c1          	orpd   %xmm1,%xmm0
  7f:	66 0f 2e 05 00 00 00 	ucomisd 0x0(%rip),%xmm0        # 87 <_ZNKSt8__detail20_Prime_rehash_policy19_M_bkt_for_elementsEm+0x87>
  86:	00 
  87:	73 07                	jae    90 <_ZNKSt8__detail20_Prime_rehash_policy19_M_bkt_for_elementsEm+0x90>
  89:	f2 48 0f 2c c0       	cvttsd2si %xmm0,%rax
  8e:	eb 1e                	jmp    ae <_ZNKSt8__detail20_Prime_rehash_policy19_M_bkt_for_elementsEm+0xae>
  90:	f2 0f 10 0d 00 00 00 	movsd  0x0(%rip),%xmm1        # 98 <_ZNKSt8__detail20_Prime_rehash_policy19_M_bkt_for_elementsEm+0x98>
  97:	00 
  98:	f2 0f 5c c1          	subsd  %xmm1,%xmm0
  9c:	f2 48 0f 2c c0       	cvttsd2si %xmm0,%rax
  a1:	48 ba 00 00 00 00 00 	movabs $0x8000000000000000,%rdx
  a8:	00 00 80 
  ab:	48 31 d0             	xor    %rdx,%rax
  ae:	5d                   	pop    %rbp
  af:	c3                   	retq   

Disassembly of section .text._ZNKSt8__detail20_Prime_rehash_policy8_M_stateEv:

0000000000000000 <_ZNKSt8__detail20_Prime_rehash_policy8_M_stateEv>:
   0:	55                   	push   %rbp
   1:	48 89 e5             	mov    %rsp,%rbp
   4:	48 89 7d f8          	mov    %rdi,-0x8(%rbp)
   8:	48 8b 45 f8          	mov    -0x8(%rbp),%rax
   c:	48 8b 40 08          	mov    0x8(%rax),%rax
  10:	5d                   	pop    %rbp
  11:	c3                   	retq   

Disassembly of section .text._ZNSt8__detail20_Prime_rehash_policy8_M_resetEm:

0000000000000000 <_ZNSt8__detail20_Prime_rehash_policy8_M_resetEm>:
   0:	55                   	push   %rbp
   1:	48 89 e5             	mov    %rsp,%rbp
   4:	48 89 7d f8          	mov    %rdi,-0x8(%rbp)
   8:	48 89 75 f0          	mov    %rsi,-0x10(%rbp)
   c:	48 8b 45 f8          	mov    -0x8(%rbp),%rax
  10:	48 8b 55 f0          	mov    -0x10(%rbp),%rdx
  14:	48 89 50 08          	mov    %rdx,0x8(%rax)
  18:	90                   	nop
  19:	5d                   	pop    %rbp
  1a:	c3                   	retq   

Disassembly of section .text._ZSt7forwardIbEOT_RNSt16remove_referenceIS0_E4typeE:

0000000000000000 <_ZSt7forwardIbEOT_RNSt16remove_referenceIS0_E4typeE>:
   0:	55                   	push   %rbp
   1:	48 89 e5             	mov    %rsp,%rbp
   4:	48 89 7d f8          	mov    %rdi,-0x8(%rbp)
   8:	48 8b 45 f8          	mov    -0x8(%rbp),%rax
   c:	5d                   	pop    %rbp
   d:	c3                   	retq   

Disassembly of section .text._ZNSt14numeric_limitsIlE3maxEv:

0000000000000000 <_ZNSt14numeric_limitsIlE3maxEv>:
   0:	55                   	push   %rbp
   1:	48 89 e5             	mov    %rsp,%rbp
   4:	48 b8 ff ff ff ff ff 	movabs $0x7fffffffffffffff,%rax
   b:	ff ff 7f 
   e:	5d                   	pop    %rbp
   f:	c3                   	retq   

Disassembly of section .text._ZN6ClientD2Ev:

0000000000000000 <_ZN6ClientD1Ev>:
   0:	55                   	push   %rbp
   1:	48 89 e5             	mov    %rsp,%rbp
   4:	48 83 ec 10          	sub    $0x10,%rsp
   8:	48 89 7d f8          	mov    %rdi,-0x8(%rbp)
   c:	48 8b 45 f8          	mov    -0x8(%rbp),%rax
  10:	48 89 c7             	mov    %rax,%rdi
  13:	e8 00 00 00 00       	callq  18 <_ZN6ClientD1Ev+0x18>
  18:	90                   	nop
  19:	c9                   	leaveq 
  1a:	c3                   	retq   

Disassembly of section .text._ZNSt4pairIKNSt7__cxx1112basic_stringIcSt11char_traitsIcESaIcEEES5_ED2Ev:

0000000000000000 <_ZNSt4pairIKNSt7__cxx1112basic_stringIcSt11char_traitsIcESaIcEEES5_ED1Ev>:
   0:	55                   	push   %rbp
   1:	48 89 e5             	mov    %rsp,%rbp
   4:	48 83 ec 10          	sub    $0x10,%rsp
   8:	48 89 7d f8          	mov    %rdi,-0x8(%rbp)
   c:	48 8b 45 f8          	mov    -0x8(%rbp),%rax
  10:	48 83 c0 20          	add    $0x20,%rax
  14:	48 89 c7             	mov    %rax,%rdi
  17:	e8 00 00 00 00       	callq  1c <_ZNSt4pairIKNSt7__cxx1112basic_stringIcSt11char_traitsIcESaIcEEES5_ED1Ev+0x1c>
  1c:	48 8b 45 f8          	mov    -0x8(%rbp),%rax
  20:	48 89 c7             	mov    %rax,%rdi
  23:	e8 00 00 00 00       	callq  28 <_ZNSt4pairIKNSt7__cxx1112basic_stringIcSt11char_traitsIcESaIcEEES5_ED1Ev+0x28>
  28:	90                   	nop
  29:	c9                   	leaveq 
  2a:	c3                   	retq   

Disassembly of section .text._ZNSt13unordered_mapINSt7__cxx1112basic_stringIcSt11char_traitsIcESaIcEEES5_St4hashIS5_ESt8equal_toIS5_ESaISt4pairIKS5_S5_EEED2Ev:

0000000000000000 <_ZNSt13unordered_mapINSt7__cxx1112basic_stringIcSt11char_traitsIcESaIcEEES5_St4hashIS5_ESt8equal_toIS5_ESaISt4pairIKS5_S5_EEED1Ev>:
   0:	55                   	push   %rbp
   1:	48 89 e5             	mov    %rsp,%rbp
   4:	48 83 ec 10          	sub    $0x10,%rsp
   8:	48 89 7d f8          	mov    %rdi,-0x8(%rbp)
   c:	48 8b 45 f8          	mov    -0x8(%rbp),%rax
  10:	48 89 c7             	mov    %rax,%rdi
  13:	e8 00 00 00 00       	callq  18 <_ZNSt13unordered_mapINSt7__cxx1112basic_stringIcSt11char_traitsIcESaIcEEES5_St4hashIS5_ESt8equal_toIS5_ESaISt4pairIKS5_S5_EEED1Ev+0x18>
  18:	90                   	nop
  19:	c9                   	leaveq 
  1a:	c3                   	retq   

Disassembly of section .text._ZN9__gnu_cxx12__to_xstringINSt7__cxx1112basic_stringIcSt11char_traitsIcESaIcEEEcEET_PFiPT0_mPKS8_P13__va_list_tagEmSB_z:

0000000000000000 <_ZN9__gnu_cxx12__to_xstringINSt7__cxx1112basic_stringIcSt11char_traitsIcESaIcEEEcEET_PFiPT0_mPKS8_P13__va_list_tagEmSB_z>:
   0:	55                   	push   %rbp
   1:	48 89 e5             	mov    %rsp,%rbp
   4:	53                   	push   %rbx
   5:	48 81 ec 08 01 00 00 	sub    $0x108,%rsp
   c:	48 89 bd 08 ff ff ff 	mov    %rdi,-0xf8(%rbp)
  13:	48 89 b5 00 ff ff ff 	mov    %rsi,-0x100(%rbp)
  1a:	48 89 95 f8 fe ff ff 	mov    %rdx,-0x108(%rbp)
  21:	48 89 8d f0 fe ff ff 	mov    %rcx,-0x110(%rbp)
  28:	4c 89 85 60 ff ff ff 	mov    %r8,-0xa0(%rbp)
  2f:	4c 89 8d 68 ff ff ff 	mov    %r9,-0x98(%rbp)
  36:	84 c0                	test   %al,%al
  38:	74 23                	je     5d <_ZN9__gnu_cxx12__to_xstringINSt7__cxx1112basic_stringIcSt11char_traitsIcESaIcEEEcEET_PFiPT0_mPKS8_P13__va_list_tagEmSB_z+0x5d>
  3a:	0f 29 85 70 ff ff ff 	movaps %xmm0,-0x90(%rbp)
  41:	0f 29 4d 80          	movaps %xmm1,-0x80(%rbp)
  45:	0f 29 55 90          	movaps %xmm2,-0x70(%rbp)
  49:	0f 29 5d a0          	movaps %xmm3,-0x60(%rbp)
  4d:	0f 29 65 b0          	movaps %xmm4,-0x50(%rbp)
  51:	0f 29 6d c0          	movaps %xmm5,-0x40(%rbp)
  55:	0f 29 75 d0          	movaps %xmm6,-0x30(%rbp)
  59:	0f 29 7d e0          	movaps %xmm7,-0x20(%rbp)
  5d:	64 48 8b 04 25 28 00 	mov    %fs:0x28,%rax
  64:	00 00 
  66:	48 89 85 38 ff ff ff 	mov    %rax,-0xc8(%rbp)
  6d:	31 c0                	xor    %eax,%eax
  6f:	48 8b 85 f8 fe ff ff 	mov    -0x108(%rbp),%rax
  76:	48 8d 50 0f          	lea    0xf(%rax),%rdx
  7a:	b8 10 00 00 00       	mov    $0x10,%eax
  7f:	48 83 e8 01          	sub    $0x1,%rax
  83:	48 01 d0             	add    %rdx,%rax
  86:	bb 10 00 00 00       	mov    $0x10,%ebx
  8b:	ba 00 00 00 00       	mov    $0x0,%edx
  90:	48 f7 f3             	div    %rbx
  93:	48 6b c0 10          	imul   $0x10,%rax,%rax
  97:	48 29 c4             	sub    %rax,%rsp
  9a:	48 89 e0             	mov    %rsp,%rax
  9d:	48 83 c0 0f          	add    $0xf,%rax
  a1:	48 c1 e8 04          	shr    $0x4,%rax
  a5:	48 c1 e0 04          	shl    $0x4,%rax
  a9:	48 89 85 18 ff ff ff 	mov    %rax,-0xe8(%rbp)
  b0:	c7 85 20 ff ff ff 20 	movl   $0x20,-0xe0(%rbp)
  b7:	00 00 00 
  ba:	c7 85 24 ff ff ff 30 	movl   $0x30,-0xdc(%rbp)
  c1:	00 00 00 
  c4:	48 8d 45 10          	lea    0x10(%rbp),%rax
  c8:	48 89 85 28 ff ff ff 	mov    %rax,-0xd8(%rbp)
  cf:	48 8d 85 40 ff ff ff 	lea    -0xc0(%rbp),%rax
  d6:	48 89 85 30 ff ff ff 	mov    %rax,-0xd0(%rbp)
  dd:	48 8d 8d 20 ff ff ff 	lea    -0xe0(%rbp),%rcx
  e4:	48 8b 95 f0 fe ff ff 	mov    -0x110(%rbp),%rdx
  eb:	48 8b b5 f8 fe ff ff 	mov    -0x108(%rbp),%rsi
  f2:	48 8b bd 18 ff ff ff 	mov    -0xe8(%rbp),%rdi
  f9:	48 8b 85 00 ff ff ff 	mov    -0x100(%rbp),%rax
 100:	ff d0                	callq  *%rax
 102:	89 85 14 ff ff ff    	mov    %eax,-0xec(%rbp)
 108:	48 8d 85 13 ff ff ff 	lea    -0xed(%rbp),%rax
 10f:	48 89 c7             	mov    %rax,%rdi
 112:	e8 00 00 00 00       	callq  117 <_ZN9__gnu_cxx12__to_xstringINSt7__cxx1112basic_stringIcSt11char_traitsIcESaIcEEEcEET_PFiPT0_mPKS8_P13__va_list_tagEmSB_z+0x117>
 117:	8b 85 14 ff ff ff    	mov    -0xec(%rbp),%eax
 11d:	48 63 d0             	movslq %eax,%rdx
 120:	48 8b 85 18 ff ff ff 	mov    -0xe8(%rbp),%rax
 127:	48 8d 3c 02          	lea    (%rdx,%rax,1),%rdi
 12b:	48 8d 95 13 ff ff ff 	lea    -0xed(%rbp),%rdx
 132:	48 8b b5 18 ff ff ff 	mov    -0xe8(%rbp),%rsi
 139:	48 8b 85 08 ff ff ff 	mov    -0xf8(%rbp),%rax
 140:	48 89 d1             	mov    %rdx,%rcx
 143:	48 89 fa             	mov    %rdi,%rdx
 146:	48 89 c7             	mov    %rax,%rdi
 149:	e8 00 00 00 00       	callq  14e <_ZN9__gnu_cxx12__to_xstringINSt7__cxx1112basic_stringIcSt11char_traitsIcESaIcEEEcEET_PFiPT0_mPKS8_P13__va_list_tagEmSB_z+0x14e>
 14e:	48 8d 85 13 ff ff ff 	lea    -0xed(%rbp),%rax
 155:	48 89 c7             	mov    %rax,%rdi
 158:	e8 00 00 00 00       	callq  15d <_ZN9__gnu_cxx12__to_xstringINSt7__cxx1112basic_stringIcSt11char_traitsIcESaIcEEEcEET_PFiPT0_mPKS8_P13__va_list_tagEmSB_z+0x15d>
 15d:	48 8b 85 08 ff ff ff 	mov    -0xf8(%rbp),%rax
 164:	48 8b 9d 38 ff ff ff 	mov    -0xc8(%rbp),%rbx
 16b:	64 48 33 1c 25 28 00 	xor    %fs:0x28,%rbx
 172:	00 00 
 174:	74 24                	je     19a <_ZN9__gnu_cxx12__to_xstringINSt7__cxx1112basic_stringIcSt11char_traitsIcESaIcEEEcEET_PFiPT0_mPKS8_P13__va_list_tagEmSB_z+0x19a>
 176:	eb 1d                	jmp    195 <_ZN9__gnu_cxx12__to_xstringINSt7__cxx1112basic_stringIcSt11char_traitsIcESaIcEEEcEET_PFiPT0_mPKS8_P13__va_list_tagEmSB_z+0x195>
 178:	48 89 c3             	mov    %rax,%rbx
 17b:	48 8d 85 13 ff ff ff 	lea    -0xed(%rbp),%rax
 182:	48 89 c7             	mov    %rax,%rdi
 185:	e8 00 00 00 00       	callq  18a <_ZN9__gnu_cxx12__to_xstringINSt7__cxx1112basic_stringIcSt11char_traitsIcESaIcEEEcEET_PFiPT0_mPKS8_P13__va_list_tagEmSB_z+0x18a>
 18a:	48 89 d8             	mov    %rbx,%rax
 18d:	48 89 c7             	mov    %rax,%rdi
 190:	e8 00 00 00 00       	callq  195 <_ZN9__gnu_cxx12__to_xstringINSt7__cxx1112basic_stringIcSt11char_traitsIcESaIcEEEcEET_PFiPT0_mPKS8_P13__va_list_tagEmSB_z+0x195>
 195:	e8 00 00 00 00       	callq  19a <_ZN9__gnu_cxx12__to_xstringINSt7__cxx1112basic_stringIcSt11char_traitsIcESaIcEEEcEET_PFiPT0_mPKS8_P13__va_list_tagEmSB_z+0x19a>
 19a:	48 8b 5d f8          	mov    -0x8(%rbp),%rbx
 19e:	c9                   	leaveq 
 19f:	c3                   	retq   

Disassembly of section .text._ZNSt7__cxx1112basic_stringIcSt11char_traitsIcESaIcEE12_Alloc_hiderD2Ev:

0000000000000000 <_ZNSt7__cxx1112basic_stringIcSt11char_traitsIcESaIcEE12_Alloc_hiderD1Ev>:
   0:	55                   	push   %rbp
   1:	48 89 e5             	mov    %rsp,%rbp
   4:	48 83 ec 10          	sub    $0x10,%rsp
   8:	48 89 7d f8          	mov    %rdi,-0x8(%rbp)
   c:	48 8b 45 f8          	mov    -0x8(%rbp),%rax
  10:	48 89 c7             	mov    %rax,%rdi
  13:	e8 00 00 00 00       	callq  18 <_ZNSt7__cxx1112basic_stringIcSt11char_traitsIcESaIcEE12_Alloc_hiderD1Ev+0x18>
  18:	90                   	nop
  19:	c9                   	leaveq 
  1a:	c3                   	retq   

Disassembly of section .text._ZSt3maxImERKT_S2_S2_:

0000000000000000 <_ZSt3maxImERKT_S2_S2_>:
   0:	55                   	push   %rbp
   1:	48 89 e5             	mov    %rsp,%rbp
   4:	48 89 7d f8          	mov    %rdi,-0x8(%rbp)
   8:	48 89 75 f0          	mov    %rsi,-0x10(%rbp)
   c:	48 8b 45 f8          	mov    -0x8(%rbp),%rax
  10:	48 8b 10             	mov    (%rax),%rdx
  13:	48 8b 45 f0          	mov    -0x10(%rbp),%rax
  17:	48 8b 00             	mov    (%rax),%rax
  1a:	48 39 c2             	cmp    %rax,%rdx
  1d:	73 06                	jae    25 <_ZSt3maxImERKT_S2_S2_+0x25>
  1f:	48 8b 45 f0          	mov    -0x10(%rbp),%rax
  23:	eb 04                	jmp    29 <_ZSt3maxImERKT_S2_S2_+0x29>
  25:	48 8b 45 f8          	mov    -0x8(%rbp),%rax
  29:	5d                   	pop    %rbp
  2a:	c3                   	retq   

Disassembly of section .text._ZNSaI6ClientEC2Ev:

0000000000000000 <_ZNSaI6ClientEC1Ev>:
   0:	55                   	push   %rbp
   1:	48 89 e5             	mov    %rsp,%rbp
   4:	48 83 ec 10          	sub    $0x10,%rsp
   8:	48 89 7d f8          	mov    %rdi,-0x8(%rbp)
   c:	48 8b 45 f8          	mov    -0x8(%rbp),%rax
  10:	48 89 c7             	mov    %rax,%rdi
  13:	e8 00 00 00 00       	callq  18 <_ZNSaI6ClientEC1Ev+0x18>
  18:	90                   	nop
  19:	c9                   	leaveq 
  1a:	c3                   	retq   

Disassembly of section .text._ZNSaI6ClientED2Ev:

0000000000000000 <_ZNSaI6ClientED1Ev>:
   0:	55                   	push   %rbp
   1:	48 89 e5             	mov    %rsp,%rbp
   4:	48 83 ec 10          	sub    $0x10,%rsp
   8:	48 89 7d f8          	mov    %rdi,-0x8(%rbp)
   c:	48 8b 45 f8          	mov    -0x8(%rbp),%rax
  10:	48 89 c7             	mov    %rax,%rdi
  13:	e8 00 00 00 00       	callq  18 <_ZNSaI6ClientED1Ev+0x18>
  18:	90                   	nop
  19:	c9                   	leaveq 
  1a:	c3                   	retq   

Disassembly of section .text._ZNKSt16initializer_listI6ClientE5beginEv:

0000000000000000 <_ZNKSt16initializer_listI6ClientE5beginEv>:
   0:	55                   	push   %rbp
   1:	48 89 e5             	mov    %rsp,%rbp
   4:	48 89 7d f8          	mov    %rdi,-0x8(%rbp)
   8:	48 8b 45 f8          	mov    -0x8(%rbp),%rax
   c:	48 8b 00             	mov    (%rax),%rax
   f:	5d                   	pop    %rbp
  10:	c3                   	retq   

Disassembly of section .text._ZNKSt16initializer_listI6ClientE3endEv:

0000000000000000 <_ZNKSt16initializer_listI6ClientE3endEv>:
   0:	55                   	push   %rbp
   1:	48 89 e5             	mov    %rsp,%rbp
   4:	53                   	push   %rbx
   5:	48 83 ec 18          	sub    $0x18,%rsp
   9:	48 89 7d e8          	mov    %rdi,-0x18(%rbp)
   d:	48 8b 45 e8          	mov    -0x18(%rbp),%rax
  11:	48 89 c7             	mov    %rax,%rdi
  14:	e8 00 00 00 00       	callq  19 <_ZNKSt16initializer_listI6ClientE3endEv+0x19>
  19:	48 89 c3             	mov    %rax,%rbx
  1c:	48 8b 45 e8          	mov    -0x18(%rbp),%rax
  20:	48 89 c7             	mov    %rax,%rdi
  23:	e8 00 00 00 00       	callq  28 <_ZNKSt16initializer_listI6ClientE3endEv+0x28>
  28:	48 89 c2             	mov    %rax,%rdx
  2b:	48 89 d0             	mov    %rdx,%rax
  2e:	48 c1 e0 02          	shl    $0x2,%rax
  32:	48 01 d0             	add    %rdx,%rax
  35:	48 c1 e0 03          	shl    $0x3,%rax
  39:	48 01 d8             	add    %rbx,%rax
  3c:	48 83 c4 18          	add    $0x18,%rsp
  40:	5b                   	pop    %rbx
  41:	5d                   	pop    %rbp
  42:	c3                   	retq   

Disassembly of section .text._ZNSt6vectorI6ClientSaIS0_EEC2ESt16initializer_listIS0_ERKS1_:

0000000000000000 <_ZNSt6vectorI6ClientSaIS0_EEC1ESt16initializer_listIS0_ERKS1_>:
   0:	55                   	push   %rbp
   1:	48 89 e5             	mov    %rsp,%rbp
   4:	41 54                	push   %r12
   6:	53                   	push   %rbx
   7:	48 83 ec 30          	sub    $0x30,%rsp
   b:	48 89 7d d8          	mov    %rdi,-0x28(%rbp)
   f:	48 89 f0             	mov    %rsi,%rax
  12:	48 89 d6             	mov    %rdx,%rsi
  15:	48 89 f2             	mov    %rsi,%rdx
  18:	48 89 45 c0          	mov    %rax,-0x40(%rbp)
  1c:	48 89 55 c8          	mov    %rdx,-0x38(%rbp)
  20:	48 89 4d d0          	mov    %rcx,-0x30(%rbp)
  24:	64 48 8b 04 25 28 00 	mov    %fs:0x28,%rax
  2b:	00 00 
  2d:	48 89 45 e8          	mov    %rax,-0x18(%rbp)
  31:	31 c0                	xor    %eax,%eax
  33:	48 8b 45 d8          	mov    -0x28(%rbp),%rax
  37:	48 8b 55 d0          	mov    -0x30(%rbp),%rdx
  3b:	48 89 d6             	mov    %rdx,%rsi
  3e:	48 89 c7             	mov    %rax,%rdi
  41:	e8 00 00 00 00       	callq  46 <_ZNSt6vectorI6ClientSaIS0_EEC1ESt16initializer_listIS0_ERKS1_+0x46>
  46:	48 8d 45 c0          	lea    -0x40(%rbp),%rax
  4a:	48 89 c7             	mov    %rax,%rdi
  4d:	e8 00 00 00 00       	callq  52 <_ZNSt6vectorI6ClientSaIS0_EEC1ESt16initializer_listIS0_ERKS1_+0x52>
  52:	48 89 c3             	mov    %rax,%rbx
  55:	48 8d 45 c0          	lea    -0x40(%rbp),%rax
  59:	48 89 c7             	mov    %rax,%rdi
  5c:	e8 00 00 00 00       	callq  61 <_ZNSt6vectorI6ClientSaIS0_EEC1ESt16initializer_listIS0_ERKS1_+0x61>
  61:	48 89 c1             	mov    %rax,%rcx
  64:	48 8b 45 d8          	mov    -0x28(%rbp),%rax
  68:	48 83 ec 08          	sub    $0x8,%rsp
  6c:	41 54                	push   %r12
  6e:	48 89 da             	mov    %rbx,%rdx
  71:	48 89 ce             	mov    %rcx,%rsi
  74:	48 89 c7             	mov    %rax,%rdi
  77:	e8 00 00 00 00       	callq  7c <_ZNSt6vectorI6ClientSaIS0_EEC1ESt16initializer_listIS0_ERKS1_+0x7c>
  7c:	48 83 c4 10          	add    $0x10,%rsp
  80:	90                   	nop
  81:	48 8b 45 e8          	mov    -0x18(%rbp),%rax
  85:	64 48 33 04 25 28 00 	xor    %fs:0x28,%rax
  8c:	00 00 
  8e:	74 21                	je     b1 <_ZNSt6vectorI6ClientSaIS0_EEC1ESt16initializer_listIS0_ERKS1_+0xb1>
  90:	eb 1a                	jmp    ac <_ZNSt6vectorI6ClientSaIS0_EEC1ESt16initializer_listIS0_ERKS1_+0xac>
  92:	48 89 c3             	mov    %rax,%rbx
  95:	48 8b 45 d8          	mov    -0x28(%rbp),%rax
  99:	48 89 c7             	mov    %rax,%rdi
  9c:	e8 00 00 00 00       	callq  a1 <_ZNSt6vectorI6ClientSaIS0_EEC1ESt16initializer_listIS0_ERKS1_+0xa1>
  a1:	48 89 d8             	mov    %rbx,%rax
  a4:	48 89 c7             	mov    %rax,%rdi
  a7:	e8 00 00 00 00       	callq  ac <_ZNSt6vectorI6ClientSaIS0_EEC1ESt16initializer_listIS0_ERKS1_+0xac>
  ac:	e8 00 00 00 00       	callq  b1 <_ZNSt6vectorI6ClientSaIS0_EEC1ESt16initializer_listIS0_ERKS1_+0xb1>
  b1:	48 8d 65 f0          	lea    -0x10(%rbp),%rsp
  b5:	5b                   	pop    %rbx
  b6:	41 5c                	pop    %r12
  b8:	5d                   	pop    %rbp
  b9:	c3                   	retq   

Disassembly of section .text._ZNSt6vectorI6ClientSaIS0_EED2Ev:

0000000000000000 <_ZNSt6vectorI6ClientSaIS0_EED1Ev>:
   0:	55                   	push   %rbp
   1:	48 89 e5             	mov    %rsp,%rbp
   4:	48 83 ec 10          	sub    $0x10,%rsp
   8:	48 89 7d f8          	mov    %rdi,-0x8(%rbp)
   c:	48 8b 45 f8          	mov    -0x8(%rbp),%rax
  10:	48 89 c7             	mov    %rax,%rdi
  13:	e8 00 00 00 00       	callq  18 <_ZNSt6vectorI6ClientSaIS0_EED1Ev+0x18>
  18:	48 89 c2             	mov    %rax,%rdx
  1b:	48 8b 45 f8          	mov    -0x8(%rbp),%rax
  1f:	48 8b 48 08          	mov    0x8(%rax),%rcx
  23:	48 8b 45 f8          	mov    -0x8(%rbp),%rax
  27:	48 8b 00             	mov    (%rax),%rax
  2a:	48 89 ce             	mov    %rcx,%rsi
  2d:	48 89 c7             	mov    %rax,%rdi
  30:	e8 00 00 00 00       	callq  35 <_ZNSt6vectorI6ClientSaIS0_EED1Ev+0x35>
  35:	48 8b 45 f8          	mov    -0x8(%rbp),%rax
  39:	48 89 c7             	mov    %rax,%rdi
  3c:	e8 00 00 00 00       	callq  41 <_ZNSt6vectorI6ClientSaIS0_EED1Ev+0x41>
  41:	90                   	nop
  42:	c9                   	leaveq 
  43:	c3                   	retq   

Disassembly of section .text._ZSt7forwardIRA6_KcEOT_RNSt16remove_referenceIS3_E4typeE:

0000000000000000 <_ZSt7forwardIRA6_KcEOT_RNSt16remove_referenceIS3_E4typeE>:
   0:	55                   	push   %rbp
   1:	48 89 e5             	mov    %rsp,%rbp
   4:	48 89 7d f8          	mov    %rdi,-0x8(%rbp)
   8:	48 8b 45 f8          	mov    -0x8(%rbp),%rax
   c:	5d                   	pop    %rbp
   d:	c3                   	retq   

Disassembly of section .text._ZSt7forwardINSt7__cxx1112basic_stringIcSt11char_traitsIcESaIcEEEEOT_RNSt16remove_referenceIS6_E4typeE:

0000000000000000 <_ZSt7forwardINSt7__cxx1112basic_stringIcSt11char_traitsIcESaIcEEEEOT_RNSt16remove_referenceIS6_E4typeE>:
   0:	55                   	push   %rbp
   1:	48 89 e5             	mov    %rsp,%rbp
   4:	48 89 7d f8          	mov    %rdi,-0x8(%rbp)
   8:	48 8b 45 f8          	mov    -0x8(%rbp),%rax
   c:	5d                   	pop    %rbp
   d:	c3                   	retq   

Disassembly of section .text._ZNSt4pairIKNSt7__cxx1112basic_stringIcSt11char_traitsIcESaIcEEES5_EC2IRA6_KcS5_Lb1EEEOT_OT0_:

0000000000000000 <_ZNSt4pairIKNSt7__cxx1112basic_stringIcSt11char_traitsIcESaIcEEES5_EC1IRA6_KcS5_Lb1EEEOT_OT0_>:
   0:	55                   	push   %rbp
   1:	48 89 e5             	mov    %rsp,%rbp
   4:	53                   	push   %rbx
   5:	48 83 ec 38          	sub    $0x38,%rsp
   9:	48 89 7d d8          	mov    %rdi,-0x28(%rbp)
   d:	48 89 75 d0          	mov    %rsi,-0x30(%rbp)
  11:	48 89 55 c8          	mov    %rdx,-0x38(%rbp)
  15:	64 48 8b 04 25 28 00 	mov    %fs:0x28,%rax
  1c:	00 00 
  1e:	48 89 45 e8          	mov    %rax,-0x18(%rbp)
  22:	31 c0                	xor    %eax,%eax
  24:	48 8b 5d d8          	mov    -0x28(%rbp),%rbx
  28:	48 8d 45 e7          	lea    -0x19(%rbp),%rax
  2c:	48 89 c7             	mov    %rax,%rdi
  2f:	e8 00 00 00 00       	callq  34 <_ZNSt4pairIKNSt7__cxx1112basic_stringIcSt11char_traitsIcESaIcEEES5_EC1IRA6_KcS5_Lb1EEEOT_OT0_+0x34>
  34:	48 8b 45 d0          	mov    -0x30(%rbp),%rax
  38:	48 89 c7             	mov    %rax,%rdi
  3b:	e8 00 00 00 00       	callq  40 <_ZNSt4pairIKNSt7__cxx1112basic_stringIcSt11char_traitsIcESaIcEEES5_EC1IRA6_KcS5_Lb1EEEOT_OT0_+0x40>
  40:	48 89 c1             	mov    %rax,%rcx
  43:	48 8d 45 e7          	lea    -0x19(%rbp),%rax
  47:	48 89 c2             	mov    %rax,%rdx
  4a:	48 89 ce             	mov    %rcx,%rsi
  4d:	48 89 df             	mov    %rbx,%rdi
  50:	e8 00 00 00 00       	callq  55 <_ZNSt4pairIKNSt7__cxx1112basic_stringIcSt11char_traitsIcESaIcEEES5_EC1IRA6_KcS5_Lb1EEEOT_OT0_+0x55>
  55:	48 8d 45 e7          	lea    -0x19(%rbp),%rax
  59:	48 89 c7             	mov    %rax,%rdi
  5c:	e8 00 00 00 00       	callq  61 <_ZNSt4pairIKNSt7__cxx1112basic_stringIcSt11char_traitsIcESaIcEEES5_EC1IRA6_KcS5_Lb1EEEOT_OT0_+0x61>
  61:	48 8b 45 d8          	mov    -0x28(%rbp),%rax
  65:	48 8d 58 20          	lea    0x20(%rax),%rbx
  69:	48 8b 45 c8          	mov    -0x38(%rbp),%rax
  6d:	48 89 c7             	mov    %rax,%rdi
  70:	e8 00 00 00 00       	callq  75 <_ZNSt4pairIKNSt7__cxx1112basic_stringIcSt11char_traitsIcESaIcEEES5_EC1IRA6_KcS5_Lb1EEEOT_OT0_+0x75>
  75:	48 89 c6             	mov    %rax,%rsi
  78:	48 89 df             	mov    %rbx,%rdi
  7b:	e8 00 00 00 00       	callq  80 <_ZNSt4pairIKNSt7__cxx1112basic_stringIcSt11char_traitsIcESaIcEEES5_EC1IRA6_KcS5_Lb1EEEOT_OT0_+0x80>
  80:	90                   	nop
  81:	48 8b 45 e8          	mov    -0x18(%rbp),%rax
  85:	64 48 33 04 25 28 00 	xor    %fs:0x28,%rax
  8c:	00 00 
  8e:	74 21                	je     b1 <_ZNSt4pairIKNSt7__cxx1112basic_stringIcSt11char_traitsIcESaIcEEES5_EC1IRA6_KcS5_Lb1EEEOT_OT0_+0xb1>
  90:	eb 1a                	jmp    ac <_ZNSt4pairIKNSt7__cxx1112basic_stringIcSt11char_traitsIcESaIcEEES5_EC1IRA6_KcS5_Lb1EEEOT_OT0_+0xac>
  92:	48 89 c3             	mov    %rax,%rbx
  95:	48 8d 45 e7          	lea    -0x19(%rbp),%rax
  99:	48 89 c7             	mov    %rax,%rdi
  9c:	e8 00 00 00 00       	callq  a1 <_ZNSt4pairIKNSt7__cxx1112basic_stringIcSt11char_traitsIcESaIcEEES5_EC1IRA6_KcS5_Lb1EEEOT_OT0_+0xa1>
  a1:	48 89 d8             	mov    %rbx,%rax
  a4:	48 89 c7             	mov    %rax,%rdi
  a7:	e8 00 00 00 00       	callq  ac <_ZNSt4pairIKNSt7__cxx1112basic_stringIcSt11char_traitsIcESaIcEEES5_EC1IRA6_KcS5_Lb1EEEOT_OT0_+0xac>
  ac:	e8 00 00 00 00       	callq  b1 <_ZNSt4pairIKNSt7__cxx1112basic_stringIcSt11char_traitsIcESaIcEEES5_EC1IRA6_KcS5_Lb1EEEOT_OT0_+0xb1>
  b1:	48 83 c4 38          	add    $0x38,%rsp
  b5:	5b                   	pop    %rbx
  b6:	5d                   	pop    %rbp
  b7:	c3                   	retq   

Disassembly of section .text._ZNSaISt4pairIKNSt7__cxx1112basic_stringIcSt11char_traitsIcESaIcEEES5_EEC2Ev:

0000000000000000 <_ZNSaISt4pairIKNSt7__cxx1112basic_stringIcSt11char_traitsIcESaIcEEES5_EEC1Ev>:
   0:	55                   	push   %rbp
   1:	48 89 e5             	mov    %rsp,%rbp
   4:	48 83 ec 10          	sub    $0x10,%rsp
   8:	48 89 7d f8          	mov    %rdi,-0x8(%rbp)
   c:	48 8b 45 f8          	mov    -0x8(%rbp),%rax
  10:	48 89 c7             	mov    %rax,%rdi
  13:	e8 00 00 00 00       	callq  18 <_ZNSaISt4pairIKNSt7__cxx1112basic_stringIcSt11char_traitsIcESaIcEEES5_EEC1Ev+0x18>
  18:	90                   	nop
  19:	c9                   	leaveq 
  1a:	c3                   	retq   

Disassembly of section .text._ZNSaISt4pairIKNSt7__cxx1112basic_stringIcSt11char_traitsIcESaIcEEES5_EED2Ev:

0000000000000000 <_ZNSaISt4pairIKNSt7__cxx1112basic_stringIcSt11char_traitsIcESaIcEEES5_EED1Ev>:
   0:	55                   	push   %rbp
   1:	48 89 e5             	mov    %rsp,%rbp
   4:	48 83 ec 10          	sub    $0x10,%rsp
   8:	48 89 7d f8          	mov    %rdi,-0x8(%rbp)
   c:	48 8b 45 f8          	mov    -0x8(%rbp),%rax
  10:	48 89 c7             	mov    %rax,%rdi
  13:	e8 00 00 00 00       	callq  18 <_ZNSaISt4pairIKNSt7__cxx1112basic_stringIcSt11char_traitsIcESaIcEEES5_EED1Ev+0x18>
  18:	90                   	nop
  19:	c9                   	leaveq 
  1a:	c3                   	retq   

Disassembly of section .text._ZNSt13unordered_mapINSt7__cxx1112basic_stringIcSt11char_traitsIcESaIcEEES5_St4hashIS5_ESt8equal_toIS5_ESaISt4pairIKS5_S5_EEEC2ESt16initializer_listISC_EmRKS7_RKS9_RKSD_:

0000000000000000 <_ZNSt13unordered_mapINSt7__cxx1112basic_stringIcSt11char_traitsIcESaIcEEES5_St4hashIS5_ESt8equal_toIS5_ESaISt4pairIKS5_S5_EEEC1ESt16initializer_listISC_EmRKS7_RKS9_RKSD_>:
   0:	55                   	push   %rbp
   1:	48 89 e5             	mov    %rsp,%rbp
   4:	48 83 ec 30          	sub    $0x30,%rsp
   8:	48 89 7d f8          	mov    %rdi,-0x8(%rbp)
   c:	48 89 f0             	mov    %rsi,%rax
   f:	48 89 d6             	mov    %rdx,%rsi
  12:	48 89 f2             	mov    %rsi,%rdx
  15:	48 89 45 e0          	mov    %rax,-0x20(%rbp)
  19:	48 89 55 e8          	mov    %rdx,-0x18(%rbp)
  1d:	48 89 4d f0          	mov    %rcx,-0x10(%rbp)
  21:	4c 89 45 d8          	mov    %r8,-0x28(%rbp)
  25:	4c 89 4d d0          	mov    %r9,-0x30(%rbp)
  29:	48 8b 45 f8          	mov    -0x8(%rbp),%rax
  2d:	4c 8b 45 d0          	mov    -0x30(%rbp),%r8
  31:	48 8b 7d d8          	mov    -0x28(%rbp),%rdi
  35:	48 8b 4d f0          	mov    -0x10(%rbp),%rcx
  39:	48 8b 75 e0          	mov    -0x20(%rbp),%rsi
  3d:	48 8b 55 e8          	mov    -0x18(%rbp),%rdx
  41:	48 83 ec 08          	sub    $0x8,%rsp
  45:	ff 75 10             	pushq  0x10(%rbp)
  48:	4d 89 c1             	mov    %r8,%r9
  4b:	49 89 f8             	mov    %rdi,%r8
  4e:	48 89 c7             	mov    %rax,%rdi
  51:	e8 00 00 00 00       	callq  56 <_ZNSt13unordered_mapINSt7__cxx1112basic_stringIcSt11char_traitsIcESaIcEEES5_St4hashIS5_ESt8equal_toIS5_ESaISt4pairIKS5_S5_EEEC1ESt16initializer_listISC_EmRKS7_RKS9_RKSD_+0x56>
  56:	48 83 c4 10          	add    $0x10,%rsp
  5a:	90                   	nop
  5b:	c9                   	leaveq 
  5c:	c3                   	retq   

Disassembly of section .text._ZNSt8__detail21_Hashtable_ebo_helperILi0ESaINS_10_Hash_nodeISt4pairIKNSt7__cxx1112basic_stringIcSt11char_traitsIcESaIcEEES8_ELb1EEEELb1EED2Ev:

0000000000000000 <_ZNSt8__detail21_Hashtable_ebo_helperILi0ESaINS_10_Hash_nodeISt4pairIKNSt7__cxx1112basic_stringIcSt11char_traitsIcESaIcEEES8_ELb1EEEELb1EED1Ev>:
   0:	55                   	push   %rbp
   1:	48 89 e5             	mov    %rsp,%rbp
   4:	48 83 ec 10          	sub    $0x10,%rsp
   8:	48 89 7d f8          	mov    %rdi,-0x8(%rbp)
   c:	48 8b 45 f8          	mov    -0x8(%rbp),%rax
  10:	48 89 c7             	mov    %rax,%rdi
  13:	e8 00 00 00 00       	callq  18 <_ZNSt8__detail21_Hashtable_ebo_helperILi0ESaINS_10_Hash_nodeISt4pairIKNSt7__cxx1112basic_stringIcSt11char_traitsIcESaIcEEES8_ELb1EEEELb1EED1Ev+0x18>
  18:	90                   	nop
  19:	c9                   	leaveq 
  1a:	c3                   	retq   

Disassembly of section .text._ZNSt8__detail16_Hashtable_allocISaINS_10_Hash_nodeISt4pairIKNSt7__cxx1112basic_stringIcSt11char_traitsIcESaIcEEES8_ELb1EEEEED2Ev:

0000000000000000 <_ZNSt8__detail16_Hashtable_allocISaINS_10_Hash_nodeISt4pairIKNSt7__cxx1112basic_stringIcSt11char_traitsIcESaIcEEES8_ELb1EEEEED1Ev>:
   0:	55                   	push   %rbp
   1:	48 89 e5             	mov    %rsp,%rbp
   4:	48 83 ec 10          	sub    $0x10,%rsp
   8:	48 89 7d f8          	mov    %rdi,-0x8(%rbp)
   c:	48 8b 45 f8          	mov    -0x8(%rbp),%rax
  10:	48 89 c7             	mov    %rax,%rdi
  13:	e8 00 00 00 00       	callq  18 <_ZNSt8__detail16_Hashtable_allocISaINS_10_Hash_nodeISt4pairIKNSt7__cxx1112basic_stringIcSt11char_traitsIcESaIcEEES8_ELb1EEEEED1Ev+0x18>
  18:	90                   	nop
  19:	c9                   	leaveq 
  1a:	c3                   	retq   

Disassembly of section .text._ZNSt10_HashtableINSt7__cxx1112basic_stringIcSt11char_traitsIcESaIcEEESt4pairIKS5_S5_ESaIS8_ENSt8__detail10_Select1stESt8equal_toIS5_ESt4hashIS5_ENSA_18_Mod_range_hashingENSA_20_Default_ranged_hashENSA_20_Prime_rehash_policyENSA_17_Hashtable_traitsILb1ELb0ELb1EEEED2Ev:

0000000000000000 <_ZNSt10_HashtableINSt7__cxx1112basic_stringIcSt11char_traitsIcESaIcEEESt4pairIKS5_S5_ESaIS8_ENSt8__detail10_Select1stESt8equal_toIS5_ESt4hashIS5_ENSA_18_Mod_range_hashingENSA_20_Default_ranged_hashENSA_20_Prime_rehash_policyENSA_17_Hashtable_traitsILb1ELb0ELb1EEEED1Ev>:
   0:	55                   	push   %rbp
   1:	48 89 e5             	mov    %rsp,%rbp
   4:	48 83 ec 10          	sub    $0x10,%rsp
   8:	48 89 7d f8          	mov    %rdi,-0x8(%rbp)
   c:	48 8b 45 f8          	mov    -0x8(%rbp),%rax
  10:	48 89 c7             	mov    %rax,%rdi
  13:	e8 00 00 00 00       	callq  18 <_ZNSt10_HashtableINSt7__cxx1112basic_stringIcSt11char_traitsIcESaIcEEESt4pairIKS5_S5_ESaIS8_ENSt8__detail10_Select1stESt8equal_toIS5_ESt4hashIS5_ENSA_18_Mod_range_hashingENSA_20_Default_ranged_hashENSA_20_Prime_rehash_policyENSA_17_Hashtable_traitsILb1ELb0ELb1EEEED1Ev+0x18>
  18:	48 8b 45 f8          	mov    -0x8(%rbp),%rax
  1c:	48 89 c7             	mov    %rax,%rdi
  1f:	e8 00 00 00 00       	callq  24 <_ZNSt10_HashtableINSt7__cxx1112basic_stringIcSt11char_traitsIcESaIcEEESt4pairIKS5_S5_ESaIS8_ENSt8__detail10_Select1stESt8equal_toIS5_ESt4hashIS5_ENSA_18_Mod_range_hashingENSA_20_Default_ranged_hashENSA_20_Prime_rehash_policyENSA_17_Hashtable_traitsILb1ELb0ELb1EEEED1Ev+0x24>
  24:	48 8b 45 f8          	mov    -0x8(%rbp),%rax
  28:	48 89 c7             	mov    %rax,%rdi
  2b:	e8 00 00 00 00       	callq  30 <_ZNSt10_HashtableINSt7__cxx1112basic_stringIcSt11char_traitsIcESaIcEEESt4pairIKS5_S5_ESaIS8_ENSt8__detail10_Select1stESt8equal_toIS5_ESt4hashIS5_ENSA_18_Mod_range_hashingENSA_20_Default_ranged_hashENSA_20_Prime_rehash_policyENSA_17_Hashtable_traitsILb1ELb0ELb1EEEED1Ev+0x30>
  30:	90                   	nop
  31:	c9                   	leaveq 
  32:	c3                   	retq   

Disassembly of section .text._ZNSt13unordered_mapINSt7__cxx1112basic_stringIcSt11char_traitsIcESaIcEEES5_St4hashIS5_ESt8equal_toIS5_ESaISt4pairIKS5_S5_EEE4findERSB_:

0000000000000000 <_ZNSt13unordered_mapINSt7__cxx1112basic_stringIcSt11char_traitsIcESaIcEEES5_St4hashIS5_ESt8equal_toIS5_ESaISt4pairIKS5_S5_EEE4findERSB_>:
   0:	55                   	push   %rbp
   1:	48 89 e5             	mov    %rsp,%rbp
   4:	48 83 ec 10          	sub    $0x10,%rsp
   8:	48 89 7d f8          	mov    %rdi,-0x8(%rbp)
   c:	48 89 75 f0          	mov    %rsi,-0x10(%rbp)
  10:	48 8b 45 f8          	mov    -0x8(%rbp),%rax
  14:	48 8b 55 f0          	mov    -0x10(%rbp),%rdx
  18:	48 89 d6             	mov    %rdx,%rsi
  1b:	48 89 c7             	mov    %rax,%rdi
  1e:	e8 00 00 00 00       	callq  23 <_ZNSt13unordered_mapINSt7__cxx1112basic_stringIcSt11char_traitsIcESaIcEEES5_St4hashIS5_ESt8equal_toIS5_ESaISt4pairIKS5_S5_EEE4findERSB_+0x23>
  23:	c9                   	leaveq 
  24:	c3                   	retq   

Disassembly of section .text._ZNSt13unordered_mapINSt7__cxx1112basic_stringIcSt11char_traitsIcESaIcEEES5_St4hashIS5_ESt8equal_toIS5_ESaISt4pairIKS5_S5_EEE3endEv:

0000000000000000 <_ZNSt13unordered_mapINSt7__cxx1112basic_stringIcSt11char_traitsIcESaIcEEES5_St4hashIS5_ESt8equal_toIS5_ESaISt4pairIKS5_S5_EEE3endEv>:
   0:	55                   	push   %rbp
   1:	48 89 e5             	mov    %rsp,%rbp
   4:	48 83 ec 10          	sub    $0x10,%rsp
   8:	48 89 7d f8          	mov    %rdi,-0x8(%rbp)
   c:	48 8b 45 f8          	mov    -0x8(%rbp),%rax
  10:	48 89 c7             	mov    %rax,%rdi
  13:	e8 00 00 00 00       	callq  18 <_ZNSt13unordered_mapINSt7__cxx1112basic_stringIcSt11char_traitsIcESaIcEEES5_St4hashIS5_ESt8equal_toIS5_ESaISt4pairIKS5_S5_EEE3endEv+0x18>
  18:	c9                   	leaveq 
  19:	c3                   	retq   

Disassembly of section .text._ZNSt8__detailneISt4pairIKNSt7__cxx1112basic_stringIcSt11char_traitsIcESaIcEEES7_ELb1EEEbRKNS_19_Node_iterator_baseIT_XT0_EEESE_:

0000000000000000 <_ZNSt8__detailneISt4pairIKNSt7__cxx1112basic_stringIcSt11char_traitsIcESaIcEEES7_ELb1EEEbRKNS_19_Node_iterator_baseIT_XT0_EEESE_>:
   0:	55                   	push   %rbp
   1:	48 89 e5             	mov    %rsp,%rbp
   4:	48 89 7d f8          	mov    %rdi,-0x8(%rbp)
   8:	48 89 75 f0          	mov    %rsi,-0x10(%rbp)
   c:	48 8b 45 f8          	mov    -0x8(%rbp),%rax
  10:	48 8b 10             	mov    (%rax),%rdx
  13:	48 8b 45 f0          	mov    -0x10(%rbp),%rax
  17:	48 8b 00             	mov    (%rax),%rax
  1a:	48 39 c2             	cmp    %rax,%rdx
  1d:	0f 95 c0             	setne  %al
  20:	5d                   	pop    %rbp
  21:	c3                   	retq   

Disassembly of section .text._ZNSt13unordered_mapINSt7__cxx1112basic_stringIcSt11char_traitsIcESaIcEEES5_St4hashIS5_ESt8equal_toIS5_ESaISt4pairIKS5_S5_EEEixERSB_:

0000000000000000 <_ZNSt13unordered_mapINSt7__cxx1112basic_stringIcSt11char_traitsIcESaIcEEES5_St4hashIS5_ESt8equal_toIS5_ESaISt4pairIKS5_S5_EEEixERSB_>:
   0:	55                   	push   %rbp
   1:	48 89 e5             	mov    %rsp,%rbp
   4:	48 83 ec 10          	sub    $0x10,%rsp
   8:	48 89 7d f8          	mov    %rdi,-0x8(%rbp)
   c:	48 89 75 f0          	mov    %rsi,-0x10(%rbp)
  10:	48 8b 45 f8          	mov    -0x8(%rbp),%rax
  14:	48 8b 55 f0          	mov    -0x10(%rbp),%rdx
  18:	48 89 d6             	mov    %rdx,%rsi
  1b:	48 89 c7             	mov    %rax,%rdi
  1e:	e8 00 00 00 00       	callq  23 <_ZNSt13unordered_mapINSt7__cxx1112basic_stringIcSt11char_traitsIcESaIcEEES5_St4hashIS5_ESt8equal_toIS5_ESaISt4pairIKS5_S5_EEEixERSB_+0x23>
  23:	c9                   	leaveq 
  24:	c3                   	retq   

Disassembly of section .text._ZSteqIcEN9__gnu_cxx11__enable_ifIXsrSt9__is_charIT_E7__valueEbE6__typeERKNSt7__cxx1112basic_stringIS3_St11char_traitsIS3_ESaIS3_EEESE_:

0000000000000000 <_ZSteqIcEN9__gnu_cxx11__enable_ifIXsrSt9__is_charIT_E7__valueEbE6__typeERKNSt7__cxx1112basic_stringIS3_St11char_traitsIS3_ESaIS3_EEESE_>:
   0:	55                   	push   %rbp
   1:	48 89 e5             	mov    %rsp,%rbp
   4:	41 54                	push   %r12
   6:	53                   	push   %rbx
   7:	48 83 ec 10          	sub    $0x10,%rsp
   b:	48 89 7d e8          	mov    %rdi,-0x18(%rbp)
   f:	48 89 75 e0          	mov    %rsi,-0x20(%rbp)
  13:	48 8b 45 e8          	mov    -0x18(%rbp),%rax
  17:	48 89 c7             	mov    %rax,%rdi
  1a:	e8 00 00 00 00       	callq  1f <_ZSteqIcEN9__gnu_cxx11__enable_ifIXsrSt9__is_charIT_E7__valueEbE6__typeERKNSt7__cxx1112basic_stringIS3_St11char_traitsIS3_ESaIS3_EEESE_+0x1f>
  1f:	48 89 c3             	mov    %rax,%rbx
  22:	48 8b 45 e0          	mov    -0x20(%rbp),%rax
  26:	48 89 c7             	mov    %rax,%rdi
  29:	e8 00 00 00 00       	callq  2e <_ZSteqIcEN9__gnu_cxx11__enable_ifIXsrSt9__is_charIT_E7__valueEbE6__typeERKNSt7__cxx1112basic_stringIS3_St11char_traitsIS3_ESaIS3_EEESE_+0x2e>
  2e:	48 39 c3             	cmp    %rax,%rbx
  31:	75 43                	jne    76 <_ZSteqIcEN9__gnu_cxx11__enable_ifIXsrSt9__is_charIT_E7__valueEbE6__typeERKNSt7__cxx1112basic_stringIS3_St11char_traitsIS3_ESaIS3_EEESE_+0x76>
  33:	48 8b 45 e8          	mov    -0x18(%rbp),%rax
  37:	48 89 c7             	mov    %rax,%rdi
  3a:	e8 00 00 00 00       	callq  3f <_ZSteqIcEN9__gnu_cxx11__enable_ifIXsrSt9__is_charIT_E7__valueEbE6__typeERKNSt7__cxx1112basic_stringIS3_St11char_traitsIS3_ESaIS3_EEESE_+0x3f>
  3f:	49 89 c4             	mov    %rax,%r12
  42:	48 8b 45 e0          	mov    -0x20(%rbp),%rax
  46:	48 89 c7             	mov    %rax,%rdi
  49:	e8 00 00 00 00       	callq  4e <_ZSteqIcEN9__gnu_cxx11__enable_ifIXsrSt9__is_charIT_E7__valueEbE6__typeERKNSt7__cxx1112basic_stringIS3_St11char_traitsIS3_ESaIS3_EEESE_+0x4e>
  4e:	48 89 c3             	mov    %rax,%rbx
  51:	48 8b 45 e8          	mov    -0x18(%rbp),%rax
  55:	48 89 c7             	mov    %rax,%rdi
  58:	e8 00 00 00 00       	callq  5d <_ZSteqIcEN9__gnu_cxx11__enable_ifIXsrSt9__is_charIT_E7__valueEbE6__typeERKNSt7__cxx1112basic_stringIS3_St11char_traitsIS3_ESaIS3_EEESE_+0x5d>
  5d:	4c 89 e2             	mov    %r12,%rdx
  60:	48 89 de             	mov    %rbx,%rsi
  63:	48 89 c7             	mov    %rax,%rdi
  66:	e8 00 00 00 00       	callq  6b <_ZSteqIcEN9__gnu_cxx11__enable_ifIXsrSt9__is_charIT_E7__valueEbE6__typeERKNSt7__cxx1112basic_stringIS3_St11char_traitsIS3_ESaIS3_EEESE_+0x6b>
  6b:	85 c0                	test   %eax,%eax
  6d:	75 07                	jne    76 <_ZSteqIcEN9__gnu_cxx11__enable_ifIXsrSt9__is_charIT_E7__valueEbE6__typeERKNSt7__cxx1112basic_stringIS3_St11char_traitsIS3_ESaIS3_EEESE_+0x76>
  6f:	b8 01 00 00 00       	mov    $0x1,%eax
  74:	eb 05                	jmp    7b <_ZSteqIcEN9__gnu_cxx11__enable_ifIXsrSt9__is_charIT_E7__valueEbE6__typeERKNSt7__cxx1112basic_stringIS3_St11char_traitsIS3_ESaIS3_EEESE_+0x7b>
  76:	b8 00 00 00 00       	mov    $0x0,%eax
  7b:	48 83 c4 10          	add    $0x10,%rsp
  7f:	5b                   	pop    %rbx
  80:	41 5c                	pop    %r12
  82:	5d                   	pop    %rbp
  83:	c3                   	retq   

Disassembly of section .text._ZNKSt6vectorI6ClientSaIS0_EE4sizeEv:

0000000000000000 <_ZNKSt6vectorI6ClientSaIS0_EE4sizeEv>:
   0:	55                   	push   %rbp
   1:	48 89 e5             	mov    %rsp,%rbp
   4:	48 89 7d f8          	mov    %rdi,-0x8(%rbp)
   8:	48 8b 45 f8          	mov    -0x8(%rbp),%rax
   c:	48 8b 40 08          	mov    0x8(%rax),%rax
  10:	48 89 c2             	mov    %rax,%rdx
  13:	48 8b 45 f8          	mov    -0x8(%rbp),%rax
  17:	48 8b 00             	mov    (%rax),%rax
  1a:	48 29 c2             	sub    %rax,%rdx
  1d:	48 89 d0             	mov    %rdx,%rax
  20:	48 c1 f8 03          	sar    $0x3,%rax
  24:	48 89 c2             	mov    %rax,%rdx
  27:	48 b8 cd cc cc cc cc 	movabs $0xcccccccccccccccd,%rax
  2e:	cc cc cc 
  31:	48 0f af c2          	imul   %rdx,%rax
  35:	5d                   	pop    %rbp
  36:	c3                   	retq   

Disassembly of section .text._ZNSt6vectorI6ClientSaIS0_EEixEm:

0000000000000000 <_ZNSt6vectorI6ClientSaIS0_EEixEm>:
   0:	55                   	push   %rbp
   1:	48 89 e5             	mov    %rsp,%rbp
   4:	48 89 7d f8          	mov    %rdi,-0x8(%rbp)
   8:	48 89 75 f0          	mov    %rsi,-0x10(%rbp)
   c:	48 8b 45 f8          	mov    -0x8(%rbp),%rax
  10:	48 8b 08             	mov    (%rax),%rcx
  13:	48 8b 55 f0          	mov    -0x10(%rbp),%rdx
  17:	48 89 d0             	mov    %rdx,%rax
  1a:	48 c1 e0 02          	shl    $0x2,%rax
  1e:	48 01 d0             	add    %rdx,%rax
  21:	48 c1 e0 03          	shl    $0x3,%rax
  25:	48 01 c8             	add    %rcx,%rax
  28:	5d                   	pop    %rbp
  29:	c3                   	retq   

Disassembly of section .text._ZNSt7__cxx1112basic_stringIcSt11char_traitsIcESaIcEEC2IPcvEET_S7_RKS3_:

0000000000000000 <_ZNSt7__cxx1112basic_stringIcSt11char_traitsIcESaIcEEC1IPcvEET_S7_RKS3_>:
   0:	55                   	push   %rbp
   1:	48 89 e5             	mov    %rsp,%rbp
   4:	53                   	push   %rbx
   5:	48 83 ec 28          	sub    $0x28,%rsp
   9:	48 89 7d e8          	mov    %rdi,-0x18(%rbp)
   d:	48 89 75 e0          	mov    %rsi,-0x20(%rbp)
  11:	48 89 55 d8          	mov    %rdx,-0x28(%rbp)
  15:	48 89 4d d0          	mov    %rcx,-0x30(%rbp)
  19:	48 8b 5d e8          	mov    -0x18(%rbp),%rbx
  1d:	48 8b 45 e8          	mov    -0x18(%rbp),%rax
  21:	48 89 c7             	mov    %rax,%rdi
  24:	e8 00 00 00 00       	callq  29 <_ZNSt7__cxx1112basic_stringIcSt11char_traitsIcESaIcEEC1IPcvEET_S7_RKS3_+0x29>
  29:	48 89 c1             	mov    %rax,%rcx
  2c:	48 8b 45 d0          	mov    -0x30(%rbp),%rax
  30:	48 89 c2             	mov    %rax,%rdx
  33:	48 89 ce             	mov    %rcx,%rsi
  36:	48 89 df             	mov    %rbx,%rdi
  39:	e8 00 00 00 00       	callq  3e <_ZNSt7__cxx1112basic_stringIcSt11char_traitsIcESaIcEEC1IPcvEET_S7_RKS3_+0x3e>
  3e:	48 8b 55 d8          	mov    -0x28(%rbp),%rdx
  42:	48 8b 4d e0          	mov    -0x20(%rbp),%rcx
  46:	48 8b 45 e8          	mov    -0x18(%rbp),%rax
  4a:	48 89 ce             	mov    %rcx,%rsi
  4d:	48 89 c7             	mov    %rax,%rdi
  50:	e8 00 00 00 00       	callq  55 <_ZNSt7__cxx1112basic_stringIcSt11char_traitsIcESaIcEEC1IPcvEET_S7_RKS3_+0x55>
  55:	eb 1a                	jmp    71 <_ZNSt7__cxx1112basic_stringIcSt11char_traitsIcESaIcEEC1IPcvEET_S7_RKS3_+0x71>
  57:	48 89 c3             	mov    %rax,%rbx
  5a:	48 8b 45 e8          	mov    -0x18(%rbp),%rax
  5e:	48 89 c7             	mov    %rax,%rdi
  61:	e8 00 00 00 00       	callq  66 <_ZNSt7__cxx1112basic_stringIcSt11char_traitsIcESaIcEEC1IPcvEET_S7_RKS3_+0x66>
  66:	48 89 d8             	mov    %rbx,%rax
  69:	48 89 c7             	mov    %rax,%rdi
  6c:	e8 00 00 00 00       	callq  71 <_ZNSt7__cxx1112basic_stringIcSt11char_traitsIcESaIcEEC1IPcvEET_S7_RKS3_+0x71>
  71:	48 83 c4 28          	add    $0x28,%rsp
  75:	5b                   	pop    %rbx
  76:	5d                   	pop    %rbp
  77:	c3                   	retq   

Disassembly of section .text._ZN9__gnu_cxx13new_allocatorI6ClientEC2Ev:

0000000000000000 <_ZN9__gnu_cxx13new_allocatorI6ClientEC1Ev>:
   0:	55                   	push   %rbp
   1:	48 89 e5             	mov    %rsp,%rbp
   4:	48 89 7d f8          	mov    %rdi,-0x8(%rbp)
   8:	90                   	nop
   9:	5d                   	pop    %rbp
   a:	c3                   	retq   

Disassembly of section .text._ZN9__gnu_cxx13new_allocatorI6ClientED2Ev:

0000000000000000 <_ZN9__gnu_cxx13new_allocatorI6ClientED1Ev>:
   0:	55                   	push   %rbp
   1:	48 89 e5             	mov    %rsp,%rbp
   4:	48 89 7d f8          	mov    %rdi,-0x8(%rbp)
   8:	90                   	nop
   9:	5d                   	pop    %rbp
   a:	c3                   	retq   

Disassembly of section .text._ZNSt12_Vector_baseI6ClientSaIS0_EE12_Vector_implD2Ev:

0000000000000000 <_ZNSt12_Vector_baseI6ClientSaIS0_EE12_Vector_implD1Ev>:
   0:	55                   	push   %rbp
   1:	48 89 e5             	mov    %rsp,%rbp
   4:	48 83 ec 10          	sub    $0x10,%rsp
   8:	48 89 7d f8          	mov    %rdi,-0x8(%rbp)
   c:	48 8b 45 f8          	mov    -0x8(%rbp),%rax
  10:	48 89 c7             	mov    %rax,%rdi
  13:	e8 00 00 00 00       	callq  18 <_ZNSt12_Vector_baseI6ClientSaIS0_EE12_Vector_implD1Ev+0x18>
  18:	90                   	nop
  19:	c9                   	leaveq 
  1a:	c3                   	retq   

Disassembly of section .text._ZNSt12_Vector_baseI6ClientSaIS0_EEC2ERKS1_:

0000000000000000 <_ZNSt12_Vector_baseI6ClientSaIS0_EEC1ERKS1_>:
   0:	55                   	push   %rbp
   1:	48 89 e5             	mov    %rsp,%rbp
   4:	48 83 ec 10          	sub    $0x10,%rsp
   8:	48 89 7d f8          	mov    %rdi,-0x8(%rbp)
   c:	48 89 75 f0          	mov    %rsi,-0x10(%rbp)
  10:	48 8b 45 f8          	mov    -0x8(%rbp),%rax
  14:	48 8b 55 f0          	mov    -0x10(%rbp),%rdx
  18:	48 89 d6             	mov    %rdx,%rsi
  1b:	48 89 c7             	mov    %rax,%rdi
  1e:	e8 00 00 00 00       	callq  23 <_ZNSt12_Vector_baseI6ClientSaIS0_EEC1ERKS1_+0x23>
  23:	90                   	nop
  24:	c9                   	leaveq 
  25:	c3                   	retq   

Disassembly of section .text._ZNSt12_Vector_baseI6ClientSaIS0_EED2Ev:

0000000000000000 <_ZNSt12_Vector_baseI6ClientSaIS0_EED1Ev>:
   0:	55                   	push   %rbp
   1:	48 89 e5             	mov    %rsp,%rbp
   4:	48 83 ec 10          	sub    $0x10,%rsp
   8:	48 89 7d f8          	mov    %rdi,-0x8(%rbp)
   c:	48 8b 45 f8          	mov    -0x8(%rbp),%rax
  10:	48 8b 40 10          	mov    0x10(%rax),%rax
  14:	48 89 c2             	mov    %rax,%rdx
  17:	48 8b 45 f8          	mov    -0x8(%rbp),%rax
  1b:	48 8b 00             	mov    (%rax),%rax
  1e:	48 29 c2             	sub    %rax,%rdx
  21:	48 89 d0             	mov    %rdx,%rax
  24:	48 c1 f8 03          	sar    $0x3,%rax
  28:	48 89 c2             	mov    %rax,%rdx
  2b:	48 b8 cd cc cc cc cc 	movabs $0xcccccccccccccccd,%rax
  32:	cc cc cc 
  35:	48 0f af c2          	imul   %rdx,%rax
  39:	48 89 c2             	mov    %rax,%rdx
  3c:	48 8b 45 f8          	mov    -0x8(%rbp),%rax
  40:	48 8b 08             	mov    (%rax),%rcx
  43:	48 8b 45 f8          	mov    -0x8(%rbp),%rax
  47:	48 89 ce             	mov    %rcx,%rsi
  4a:	48 89 c7             	mov    %rax,%rdi
  4d:	e8 00 00 00 00       	callq  52 <_ZNSt12_Vector_baseI6ClientSaIS0_EED1Ev+0x52>
  52:	48 8b 45 f8          	mov    -0x8(%rbp),%rax
  56:	48 89 c7             	mov    %rax,%rdi
  59:	e8 00 00 00 00       	callq  5e <_ZNSt12_Vector_baseI6ClientSaIS0_EED1Ev+0x5e>
  5e:	90                   	nop
  5f:	c9                   	leaveq 
  60:	c3                   	retq   

Disassembly of section .text._ZNKSt16initializer_listI6ClientE4sizeEv:

0000000000000000 <_ZNKSt16initializer_listI6ClientE4sizeEv>:
   0:	55                   	push   %rbp
   1:	48 89 e5             	mov    %rsp,%rbp
   4:	48 89 7d f8          	mov    %rdi,-0x8(%rbp)
   8:	48 8b 45 f8          	mov    -0x8(%rbp),%rax
   c:	48 8b 40 08          	mov    0x8(%rax),%rax
  10:	5d                   	pop    %rbp
  11:	c3                   	retq   

Disassembly of section .text._ZNSt6vectorI6ClientSaIS0_EE19_M_range_initializeIPKS0_EEvT_S6_St20forward_iterator_tag:

0000000000000000 <_ZNSt6vectorI6ClientSaIS0_EE19_M_range_initializeIPKS0_EEvT_S6_St20forward_iterator_tag>:
   0:	55                   	push   %rbp
   1:	48 89 e5             	mov    %rsp,%rbp
   4:	48 83 ec 30          	sub    $0x30,%rsp
   8:	48 89 7d e8          	mov    %rdi,-0x18(%rbp)
   c:	48 89 75 e0          	mov    %rsi,-0x20(%rbp)
  10:	48 89 55 d8          	mov    %rdx,-0x28(%rbp)
  14:	48 8b 55 d8          	mov    -0x28(%rbp),%rdx
  18:	48 8b 45 e0          	mov    -0x20(%rbp),%rax
  1c:	48 89 d6             	mov    %rdx,%rsi
  1f:	48 89 c7             	mov    %rax,%rdi
  22:	e8 00 00 00 00       	callq  27 <_ZNSt6vectorI6ClientSaIS0_EE19_M_range_initializeIPKS0_EEvT_S6_St20forward_iterator_tag+0x27>
  27:	48 89 45 f8          	mov    %rax,-0x8(%rbp)
  2b:	48 8b 45 e8          	mov    -0x18(%rbp),%rax
  2f:	48 8b 55 f8          	mov    -0x8(%rbp),%rdx
  33:	48 89 d6             	mov    %rdx,%rsi
  36:	48 89 c7             	mov    %rax,%rdi
  39:	e8 00 00 00 00       	callq  3e <_ZNSt6vectorI6ClientSaIS0_EE19_M_range_initializeIPKS0_EEvT_S6_St20forward_iterator_tag+0x3e>
  3e:	48 89 c2             	mov    %rax,%rdx
  41:	48 8b 45 e8          	mov    -0x18(%rbp),%rax
  45:	48 89 10             	mov    %rdx,(%rax)
  48:	48 8b 45 e8          	mov    -0x18(%rbp),%rax
  4c:	48 8b 08             	mov    (%rax),%rcx
  4f:	48 8b 55 f8          	mov    -0x8(%rbp),%rdx
  53:	48 89 d0             	mov    %rdx,%rax
  56:	48 c1 e0 02          	shl    $0x2,%rax
  5a:	48 01 d0             	add    %rdx,%rax
  5d:	48 c1 e0 03          	shl    $0x3,%rax
  61:	48 8d 14 01          	lea    (%rcx,%rax,1),%rdx
  65:	48 8b 45 e8          	mov    -0x18(%rbp),%rax
  69:	48 89 50 10          	mov    %rdx,0x10(%rax)
  6d:	48 8b 45 e8          	mov    -0x18(%rbp),%rax
  71:	48 89 c7             	mov    %rax,%rdi
  74:	e8 00 00 00 00       	callq  79 <_ZNSt6vectorI6ClientSaIS0_EE19_M_range_initializeIPKS0_EEvT_S6_St20forward_iterator_tag+0x79>
  79:	48 89 c1             	mov    %rax,%rcx
  7c:	48 8b 45 e8          	mov    -0x18(%rbp),%rax
  80:	48 8b 10             	mov    (%rax),%rdx
  83:	48 8b 75 d8          	mov    -0x28(%rbp),%rsi
  87:	48 8b 45 e0          	mov    -0x20(%rbp),%rax
  8b:	48 89 c7             	mov    %rax,%rdi
  8e:	e8 00 00 00 00       	callq  93 <_ZNSt6vectorI6ClientSaIS0_EE19_M_range_initializeIPKS0_EEvT_S6_St20forward_iterator_tag+0x93>
  93:	48 89 c2             	mov    %rax,%rdx
  96:	48 8b 45 e8          	mov    -0x18(%rbp),%rax
  9a:	48 89 50 08          	mov    %rdx,0x8(%rax)
  9e:	90                   	nop
  9f:	c9                   	leaveq 
  a0:	c3                   	retq   

Disassembly of section .text._ZNSt12_Vector_baseI6ClientSaIS0_EE19_M_get_Tp_allocatorEv:

0000000000000000 <_ZNSt12_Vector_baseI6ClientSaIS0_EE19_M_get_Tp_allocatorEv>:
   0:	55                   	push   %rbp
   1:	48 89 e5             	mov    %rsp,%rbp
   4:	48 89 7d f8          	mov    %rdi,-0x8(%rbp)
   8:	48 8b 45 f8          	mov    -0x8(%rbp),%rax
   c:	5d                   	pop    %rbp
   d:	c3                   	retq   

Disassembly of section .text._ZSt8_DestroyIP6ClientS0_EvT_S2_RSaIT0_E:

0000000000000000 <_ZSt8_DestroyIP6ClientS0_EvT_S2_RSaIT0_E>:
   0:	55                   	push   %rbp
   1:	48 89 e5             	mov    %rsp,%rbp
   4:	48 83 ec 20          	sub    $0x20,%rsp
   8:	48 89 7d f8          	mov    %rdi,-0x8(%rbp)
   c:	48 89 75 f0          	mov    %rsi,-0x10(%rbp)
  10:	48 89 55 e8          	mov    %rdx,-0x18(%rbp)
  14:	48 8b 55 f0          	mov    -0x10(%rbp),%rdx
  18:	48 8b 45 f8          	mov    -0x8(%rbp),%rax
  1c:	48 89 d6             	mov    %rdx,%rsi
  1f:	48 89 c7             	mov    %rax,%rdi
  22:	e8 00 00 00 00       	callq  27 <_ZSt8_DestroyIP6ClientS0_EvT_S2_RSaIT0_E+0x27>
  27:	90                   	nop
  28:	c9                   	leaveq 
  29:	c3                   	retq   

Disassembly of section .text._ZN9__gnu_cxx13new_allocatorISt4pairIKNSt7__cxx1112basic_stringIcSt11char_traitsIcESaIcEEES7_EEC2Ev:

0000000000000000 <_ZN9__gnu_cxx13new_allocatorISt4pairIKNSt7__cxx1112basic_stringIcSt11char_traitsIcESaIcEEES7_EEC1Ev>:
   0:	55                   	push   %rbp
   1:	48 89 e5             	mov    %rsp,%rbp
   4:	48 89 7d f8          	mov    %rdi,-0x8(%rbp)
   8:	90                   	nop
   9:	5d                   	pop    %rbp
   a:	c3                   	retq   

Disassembly of section .text._ZN9__gnu_cxx13new_allocatorISt4pairIKNSt7__cxx1112basic_stringIcSt11char_traitsIcESaIcEEES7_EED2Ev:

0000000000000000 <_ZN9__gnu_cxx13new_allocatorISt4pairIKNSt7__cxx1112basic_stringIcSt11char_traitsIcESaIcEEES7_EED1Ev>:
   0:	55                   	push   %rbp
   1:	48 89 e5             	mov    %rsp,%rbp
   4:	48 89 7d f8          	mov    %rdi,-0x8(%rbp)
   8:	90                   	nop
   9:	5d                   	pop    %rbp
   a:	c3                   	retq   

Disassembly of section .text._ZNKSt16initializer_listISt4pairIKNSt7__cxx1112basic_stringIcSt11char_traitsIcESaIcEEES6_EE5beginEv:

0000000000000000 <_ZNKSt16initializer_listISt4pairIKNSt7__cxx1112basic_stringIcSt11char_traitsIcESaIcEEES6_EE5beginEv>:
   0:	55                   	push   %rbp
   1:	48 89 e5             	mov    %rsp,%rbp
   4:	48 89 7d f8          	mov    %rdi,-0x8(%rbp)
   8:	48 8b 45 f8          	mov    -0x8(%rbp),%rax
   c:	48 8b 00             	mov    (%rax),%rax
   f:	5d                   	pop    %rbp
  10:	c3                   	retq   

Disassembly of section .text._ZNKSt16initializer_listISt4pairIKNSt7__cxx1112basic_stringIcSt11char_traitsIcESaIcEEES6_EE3endEv:

0000000000000000 <_ZNKSt16initializer_listISt4pairIKNSt7__cxx1112basic_stringIcSt11char_traitsIcESaIcEEES6_EE3endEv>:
   0:	55                   	push   %rbp
   1:	48 89 e5             	mov    %rsp,%rbp
   4:	53                   	push   %rbx
   5:	48 83 ec 18          	sub    $0x18,%rsp
   9:	48 89 7d e8          	mov    %rdi,-0x18(%rbp)
   d:	48 8b 45 e8          	mov    -0x18(%rbp),%rax
  11:	48 89 c7             	mov    %rax,%rdi
  14:	e8 00 00 00 00       	callq  19 <_ZNKSt16initializer_listISt4pairIKNSt7__cxx1112basic_stringIcSt11char_traitsIcESaIcEEES6_EE3endEv+0x19>
  19:	48 89 c3             	mov    %rax,%rbx
  1c:	48 8b 45 e8          	mov    -0x18(%rbp),%rax
  20:	48 89 c7             	mov    %rax,%rdi
  23:	e8 00 00 00 00       	callq  28 <_ZNKSt16initializer_listISt4pairIKNSt7__cxx1112basic_stringIcSt11char_traitsIcESaIcEEES6_EE3endEv+0x28>
  28:	48 c1 e0 06          	shl    $0x6,%rax
  2c:	48 01 d8             	add    %rbx,%rax
  2f:	48 83 c4 18          	add    $0x18,%rsp
  33:	5b                   	pop    %rbx
  34:	5d                   	pop    %rbp
  35:	c3                   	retq   

Disassembly of section .text._ZNSt10_HashtableINSt7__cxx1112basic_stringIcSt11char_traitsIcESaIcEEESt4pairIKS5_S5_ESaIS8_ENSt8__detail10_Select1stESt8equal_toIS5_ESt4hashIS5_ENSA_18_Mod_range_hashingENSA_20_Default_ranged_hashENSA_20_Prime_rehash_policyENSA_17_Hashtable_traitsILb1ELb0ELb1EEEEC2ESt16initializer_listIS8_EmRKSF_RKSD_RKS9_:

0000000000000000 <_ZNSt10_HashtableINSt7__cxx1112basic_stringIcSt11char_traitsIcESaIcEEESt4pairIKS5_S5_ESaIS8_ENSt8__detail10_Select1stESt8equal_toIS5_ESt4hashIS5_ENSA_18_Mod_range_hashingENSA_20_Default_ranged_hashENSA_20_Prime_rehash_policyENSA_17_Hashtable_traitsILb1ELb0ELb1EEEEC1ESt16initializer_listIS8_EmRKSF_RKSD_RKS9_>:
   0:	55                   	push   %rbp
   1:	48 89 e5             	mov    %rsp,%rbp
   4:	53                   	push   %rbx
   5:	48 83 ec 58          	sub    $0x58,%rsp
   9:	48 89 7d d8          	mov    %rdi,-0x28(%rbp)
   d:	48 89 f0             	mov    %rsi,%rax
  10:	48 89 d6             	mov    %rdx,%rsi
  13:	48 89 f2             	mov    %rsi,%rdx
  16:	48 89 45 c0          	mov    %rax,-0x40(%rbp)
  1a:	48 89 55 c8          	mov    %rdx,-0x38(%rbp)
  1e:	48 89 4d d0          	mov    %rcx,-0x30(%rbp)
  22:	4c 89 45 b8          	mov    %r8,-0x48(%rbp)
  26:	4c 89 4d b0          	mov    %r9,-0x50(%rbp)
  2a:	48 8b 45 10          	mov    0x10(%rbp),%rax
  2e:	48 89 45 a8          	mov    %rax,-0x58(%rbp)
  32:	64 48 8b 04 25 28 00 	mov    %fs:0x28,%rax
  39:	00 00 
  3b:	48 89 45 e8          	mov    %rax,-0x18(%rbp)
  3f:	31 c0                	xor    %eax,%eax
  41:	48 8d 45 c0          	lea    -0x40(%rbp),%rax
  45:	48 89 c7             	mov    %rax,%rdi
  48:	e8 00 00 00 00       	callq  4d <_ZNSt10_HashtableINSt7__cxx1112basic_stringIcSt11char_traitsIcESaIcEEESt4pairIKS5_S5_ESaIS8_ENSt8__detail10_Select1stESt8equal_toIS5_ESt4hashIS5_ENSA_18_Mod_range_hashingENSA_20_Default_ranged_hashENSA_20_Prime_rehash_policyENSA_17_Hashtable_traitsILb1ELb0ELb1EEEEC1ESt16initializer_listIS8_EmRKSF_RKSD_RKS9_+0x4d>
  4d:	48 89 c3             	mov    %rax,%rbx
  50:	48 8d 45 c0          	lea    -0x40(%rbp),%rax
  54:	48 89 c7             	mov    %rax,%rdi
  57:	e8 00 00 00 00       	callq  5c <_ZNSt10_HashtableINSt7__cxx1112basic_stringIcSt11char_traitsIcESaIcEEESt4pairIKS5_S5_ESaIS8_ENSt8__detail10_Select1stESt8equal_toIS5_ESt4hashIS5_ENSA_18_Mod_range_hashingENSA_20_Default_ranged_hashENSA_20_Prime_rehash_policyENSA_17_Hashtable_traitsILb1ELb0ELb1EEEEC1ESt16initializer_listIS8_EmRKSF_RKSD_RKS9_+0x5c>
  5c:	49 89 c2             	mov    %rax,%r10
  5f:	48 8d 7d e5          	lea    -0x1b(%rbp),%rdi
  63:	48 8b 75 b8          	mov    -0x48(%rbp),%rsi
  67:	48 8b 55 d0          	mov    -0x30(%rbp),%rdx
  6b:	48 8b 45 d8          	mov    -0x28(%rbp),%rax
  6f:	ff 75 a8             	pushq  -0x58(%rbp)
  72:	48 8d 4d e7          	lea    -0x19(%rbp),%rcx
  76:	51                   	push   %rcx
  77:	ff 75 b0             	pushq  -0x50(%rbp)
  7a:	48 8d 4d e6          	lea    -0x1a(%rbp),%rcx
  7e:	51                   	push   %rcx
  7f:	49 89 f9             	mov    %rdi,%r9
  82:	49 89 f0             	mov    %rsi,%r8
  85:	48 89 d1             	mov    %rdx,%rcx
  88:	48 89 da             	mov    %rbx,%rdx
  8b:	4c 89 d6             	mov    %r10,%rsi
  8e:	48 89 c7             	mov    %rax,%rdi
  91:	e8 00 00 00 00       	callq  96 <_ZNSt10_HashtableINSt7__cxx1112basic_stringIcSt11char_traitsIcESaIcEEESt4pairIKS5_S5_ESaIS8_ENSt8__detail10_Select1stESt8equal_toIS5_ESt4hashIS5_ENSA_18_Mod_range_hashingENSA_20_Default_ranged_hashENSA_20_Prime_rehash_policyENSA_17_Hashtable_traitsILb1ELb0ELb1EEEEC1ESt16initializer_listIS8_EmRKSF_RKSD_RKS9_+0x96>
  96:	48 83 c4 20          	add    $0x20,%rsp
  9a:	90                   	nop
  9b:	48 8b 45 e8          	mov    -0x18(%rbp),%rax
  9f:	64 48 33 04 25 28 00 	xor    %fs:0x28,%rax
  a6:	00 00 
  a8:	74 05                	je     af <_ZNSt10_HashtableINSt7__cxx1112basic_stringIcSt11char_traitsIcESaIcEEESt4pairIKS5_S5_ESaIS8_ENSt8__detail10_Select1stESt8equal_toIS5_ESt4hashIS5_ENSA_18_Mod_range_hashingENSA_20_Default_ranged_hashENSA_20_Prime_rehash_policyENSA_17_Hashtable_traitsILb1ELb0ELb1EEEEC1ESt16initializer_listIS8_EmRKSF_RKSD_RKS9_+0xaf>
  aa:	e8 00 00 00 00       	callq  af <_ZNSt10_HashtableINSt7__cxx1112basic_stringIcSt11char_traitsIcESaIcEEESt4pairIKS5_S5_ESaIS8_ENSt8__detail10_Select1stESt8equal_toIS5_ESt4hashIS5_ENSA_18_Mod_range_hashingENSA_20_Default_ranged_hashENSA_20_Prime_rehash_policyENSA_17_Hashtable_traitsILb1ELb0ELb1EEEEC1ESt16initializer_listIS8_EmRKSF_RKSD_RKS9_+0xaf>
  af:	48 8b 5d f8          	mov    -0x8(%rbp),%rbx
  b3:	c9                   	leaveq 
  b4:	c3                   	retq   

Disassembly of section .text._ZNSaINSt8__detail10_Hash_nodeISt4pairIKNSt7__cxx1112basic_stringIcSt11char_traitsIcESaIcEEES7_ELb1EEEED2Ev:

0000000000000000 <_ZNSaINSt8__detail10_Hash_nodeISt4pairIKNSt7__cxx1112basic_stringIcSt11char_traitsIcESaIcEEES7_ELb1EEEED1Ev>:
   0:	55                   	push   %rbp
   1:	48 89 e5             	mov    %rsp,%rbp
   4:	48 83 ec 10          	sub    $0x10,%rsp
   8:	48 89 7d f8          	mov    %rdi,-0x8(%rbp)
   c:	48 8b 45 f8          	mov    -0x8(%rbp),%rax
  10:	48 89 c7             	mov    %rax,%rdi
  13:	e8 00 00 00 00       	callq  18 <_ZNSaINSt8__detail10_Hash_nodeISt4pairIKNSt7__cxx1112basic_stringIcSt11char_traitsIcESaIcEEES7_ELb1EEEED1Ev+0x18>
  18:	90                   	nop
  19:	c9                   	leaveq 
  1a:	c3                   	retq   

Disassembly of section .text._ZNSt10_HashtableINSt7__cxx1112basic_stringIcSt11char_traitsIcESaIcEEESt4pairIKS5_S5_ESaIS8_ENSt8__detail10_Select1stESt8equal_toIS5_ESt4hashIS5_ENSA_18_Mod_range_hashingENSA_20_Default_ranged_hashENSA_20_Prime_rehash_policyENSA_17_Hashtable_traitsILb1ELb0ELb1EEEE5clearEv:

0000000000000000 <_ZNSt10_HashtableINSt7__cxx1112basic_stringIcSt11char_traitsIcESaIcEEESt4pairIKS5_S5_ESaIS8_ENSt8__detail10_Select1stESt8equal_toIS5_ESt4hashIS5_ENSA_18_Mod_range_hashingENSA_20_Default_ranged_hashENSA_20_Prime_rehash_policyENSA_17_Hashtable_traitsILb1ELb0ELb1EEEE5clearEv>:
   0:	55                   	push   %rbp
   1:	48 89 e5             	mov    %rsp,%rbp
   4:	48 83 ec 10          	sub    $0x10,%rsp
   8:	48 89 7d f8          	mov    %rdi,-0x8(%rbp)
   c:	48 8b 45 f8          	mov    -0x8(%rbp),%rax
  10:	48 89 c7             	mov    %rax,%rdi
  13:	e8 00 00 00 00       	callq  18 <_ZNSt10_HashtableINSt7__cxx1112basic_stringIcSt11char_traitsIcESaIcEEESt4pairIKS5_S5_ESaIS8_ENSt8__detail10_Select1stESt8equal_toIS5_ESt4hashIS5_ENSA_18_Mod_range_hashingENSA_20_Default_ranged_hashENSA_20_Prime_rehash_policyENSA_17_Hashtable_traitsILb1ELb0ELb1EEEE5clearEv+0x18>
  18:	48 89 c2             	mov    %rax,%rdx
  1b:	48 8b 45 f8          	mov    -0x8(%rbp),%rax
  1f:	48 89 d6             	mov    %rdx,%rsi
  22:	48 89 c7             	mov    %rax,%rdi
  25:	e8 00 00 00 00       	callq  2a <_ZNSt10_HashtableINSt7__cxx1112basic_stringIcSt11char_traitsIcESaIcEEESt4pairIKS5_S5_ESaIS8_ENSt8__detail10_Select1stESt8equal_toIS5_ESt4hashIS5_ENSA_18_Mod_range_hashingENSA_20_Default_ranged_hashENSA_20_Prime_rehash_policyENSA_17_Hashtable_traitsILb1ELb0ELb1EEEE5clearEv+0x2a>
  2a:	48 8b 45 f8          	mov    -0x8(%rbp),%rax
  2e:	48 8b 40 08          	mov    0x8(%rax),%rax
  32:	48 8d 14 c5 00 00 00 	lea    0x0(,%rax,8),%rdx
  39:	00 
  3a:	48 8b 45 f8          	mov    -0x8(%rbp),%rax
  3e:	48 8b 00             	mov    (%rax),%rax
  41:	be 00 00 00 00       	mov    $0x0,%esi
  46:	48 89 c7             	mov    %rax,%rdi
  49:	e8 00 00 00 00       	callq  4e <_ZNSt10_HashtableINSt7__cxx1112basic_stringIcSt11char_traitsIcESaIcEEESt4pairIKS5_S5_ESaIS8_ENSt8__detail10_Select1stESt8equal_toIS5_ESt4hashIS5_ENSA_18_Mod_range_hashingENSA_20_Default_ranged_hashENSA_20_Prime_rehash_policyENSA_17_Hashtable_traitsILb1ELb0ELb1EEEE5clearEv+0x4e>
  4e:	48 8b 45 f8          	mov    -0x8(%rbp),%rax
  52:	48 c7 40 18 00 00 00 	movq   $0x0,0x18(%rax)
  59:	00 
  5a:	48 8b 45 f8          	mov    -0x8(%rbp),%rax
  5e:	48 c7 40 10 00 00 00 	movq   $0x0,0x10(%rax)
  65:	00 
  66:	90                   	nop
  67:	c9                   	leaveq 
  68:	c3                   	retq   

Disassembly of section .text._ZNSt10_HashtableINSt7__cxx1112basic_stringIcSt11char_traitsIcESaIcEEESt4pairIKS5_S5_ESaIS8_ENSt8__detail10_Select1stESt8equal_toIS5_ESt4hashIS5_ENSA_18_Mod_range_hashingENSA_20_Default_ranged_hashENSA_20_Prime_rehash_policyENSA_17_Hashtable_traitsILb1ELb0ELb1EEEE21_M_deallocate_bucketsEv:

0000000000000000 <_ZNSt10_HashtableINSt7__cxx1112basic_stringIcSt11char_traitsIcESaIcEEESt4pairIKS5_S5_ESaIS8_ENSt8__detail10_Select1stESt8equal_toIS5_ESt4hashIS5_ENSA_18_Mod_range_hashingENSA_20_Default_ranged_hashENSA_20_Prime_rehash_policyENSA_17_Hashtable_traitsILb1ELb0ELb1EEEE21_M_deallocate_bucketsEv>:
   0:	55                   	push   %rbp
   1:	48 89 e5             	mov    %rsp,%rbp
   4:	48 83 ec 10          	sub    $0x10,%rsp
   8:	48 89 7d f8          	mov    %rdi,-0x8(%rbp)
   c:	48 8b 45 f8          	mov    -0x8(%rbp),%rax
  10:	48 8b 50 08          	mov    0x8(%rax),%rdx
  14:	48 8b 45 f8          	mov    -0x8(%rbp),%rax
  18:	48 8b 08             	mov    (%rax),%rcx
  1b:	48 8b 45 f8          	mov    -0x8(%rbp),%rax
  1f:	48 89 ce             	mov    %rcx,%rsi
  22:	48 89 c7             	mov    %rax,%rdi
  25:	e8 00 00 00 00       	callq  2a <_ZNSt10_HashtableINSt7__cxx1112basic_stringIcSt11char_traitsIcESaIcEEESt4pairIKS5_S5_ESaIS8_ENSt8__detail10_Select1stESt8equal_toIS5_ESt4hashIS5_ENSA_18_Mod_range_hashingENSA_20_Default_ranged_hashENSA_20_Prime_rehash_policyENSA_17_Hashtable_traitsILb1ELb0ELb1EEEE21_M_deallocate_bucketsEv+0x2a>
  2a:	90                   	nop
  2b:	c9                   	leaveq 
  2c:	c3                   	retq   

Disassembly of section .text._ZNSt10_HashtableINSt7__cxx1112basic_stringIcSt11char_traitsIcESaIcEEESt4pairIKS5_S5_ESaIS8_ENSt8__detail10_Select1stESt8equal_toIS5_ESt4hashIS5_ENSA_18_Mod_range_hashingENSA_20_Default_ranged_hashENSA_20_Prime_rehash_policyENSA_17_Hashtable_traitsILb1ELb0ELb1EEEE4findERS7_:

0000000000000000 <_ZNSt10_HashtableINSt7__cxx1112basic_stringIcSt11char_traitsIcESaIcEEESt4pairIKS5_S5_ESaIS8_ENSt8__detail10_Select1stESt8equal_toIS5_ESt4hashIS5_ENSA_18_Mod_range_hashingENSA_20_Default_ranged_hashENSA_20_Prime_rehash_policyENSA_17_Hashtable_traitsILb1ELb0ELb1EEEE4findERS7_>:
   0:	55                   	push   %rbp
   1:	48 89 e5             	mov    %rsp,%rbp
   4:	48 83 ec 40          	sub    $0x40,%rsp
   8:	48 89 7d c8          	mov    %rdi,-0x38(%rbp)
   c:	48 89 75 c0          	mov    %rsi,-0x40(%rbp)
  10:	64 48 8b 04 25 28 00 	mov    %fs:0x28,%rax
  17:	00 00 
  19:	48 89 45 f8          	mov    %rax,-0x8(%rbp)
  1d:	31 c0                	xor    %eax,%eax
  1f:	48 8b 55 c0          	mov    -0x40(%rbp),%rdx
  23:	48 8b 45 c8          	mov    -0x38(%rbp),%rax
  27:	48 89 d6             	mov    %rdx,%rsi
  2a:	48 89 c7             	mov    %rax,%rdi
  2d:	e8 00 00 00 00       	callq  32 <_ZNSt10_HashtableINSt7__cxx1112basic_stringIcSt11char_traitsIcESaIcEEESt4pairIKS5_S5_ESaIS8_ENSt8__detail10_Select1stESt8equal_toIS5_ESt4hashIS5_ENSA_18_Mod_range_hashingENSA_20_Default_ranged_hashENSA_20_Prime_rehash_policyENSA_17_Hashtable_traitsILb1ELb0ELb1EEEE4findERS7_+0x32>
  32:	48 89 45 e0          	mov    %rax,-0x20(%rbp)
  36:	48 8b 55 e0          	mov    -0x20(%rbp),%rdx
  3a:	48 8b 4d c0          	mov    -0x40(%rbp),%rcx
  3e:	48 8b 45 c8          	mov    -0x38(%rbp),%rax
  42:	48 89 ce             	mov    %rcx,%rsi
  45:	48 89 c7             	mov    %rax,%rdi
  48:	e8 00 00 00 00       	callq  4d <_ZNSt10_HashtableINSt7__cxx1112basic_stringIcSt11char_traitsIcESaIcEEESt4pairIKS5_S5_ESaIS8_ENSt8__detail10_Select1stESt8equal_toIS5_ESt4hashIS5_ENSA_18_Mod_range_hashingENSA_20_Default_ranged_hashENSA_20_Prime_rehash_policyENSA_17_Hashtable_traitsILb1ELb0ELb1EEEE4findERS7_+0x4d>
  4d:	48 89 45 e8          	mov    %rax,-0x18(%rbp)
  51:	48 8b 4d e0          	mov    -0x20(%rbp),%rcx
  55:	48 8b 55 c0          	mov    -0x40(%rbp),%rdx
  59:	48 8b 75 e8          	mov    -0x18(%rbp),%rsi
  5d:	48 8b 45 c8          	mov    -0x38(%rbp),%rax
  61:	48 89 c7             	mov    %rax,%rdi
  64:	e8 00 00 00 00       	callq  69 <_ZNSt10_HashtableINSt7__cxx1112basic_stringIcSt11char_traitsIcESaIcEEESt4pairIKS5_S5_ESaIS8_ENSt8__detail10_Select1stESt8equal_toIS5_ESt4hashIS5_ENSA_18_Mod_range_hashingENSA_20_Default_ranged_hashENSA_20_Prime_rehash_policyENSA_17_Hashtable_traitsILb1ELb0ELb1EEEE4findERS7_+0x69>
  69:	48 89 45 f0          	mov    %rax,-0x10(%rbp)
  6d:	48 83 7d f0 00       	cmpq   $0x0,-0x10(%rbp)
  72:	74 15                	je     89 <_ZNSt10_HashtableINSt7__cxx1112basic_stringIcSt11char_traitsIcESaIcEEESt4pairIKS5_S5_ESaIS8_ENSt8__detail10_Select1stESt8equal_toIS5_ESt4hashIS5_ENSA_18_Mod_range_hashingENSA_20_Default_ranged_hashENSA_20_Prime_rehash_policyENSA_17_Hashtable_traitsILb1ELb0ELb1EEEE4findERS7_+0x89>
  74:	48 8b 55 f0          	mov    -0x10(%rbp),%rdx
  78:	48 8d 45 d8          	lea    -0x28(%rbp),%rax
  7c:	48 89 d6             	mov    %rdx,%rsi
  7f:	48 89 c7             	mov    %rax,%rdi
  82:	e8 00 00 00 00       	callq  87 <_ZNSt10_HashtableINSt7__cxx1112basic_stringIcSt11char_traitsIcESaIcEEESt4pairIKS5_S5_ESaIS8_ENSt8__detail10_Select1stESt8equal_toIS5_ESt4hashIS5_ENSA_18_Mod_range_hashingENSA_20_Default_ranged_hashENSA_20_Prime_rehash_policyENSA_17_Hashtable_traitsILb1ELb0ELb1EEEE4findERS7_+0x87>
  87:	eb 10                	jmp    99 <_ZNSt10_HashtableINSt7__cxx1112basic_stringIcSt11char_traitsIcESaIcEEESt4pairIKS5_S5_ESaIS8_ENSt8__detail10_Select1stESt8equal_toIS5_ESt4hashIS5_ENSA_18_Mod_range_hashingENSA_20_Default_ranged_hashENSA_20_Prime_rehash_policyENSA_17_Hashtable_traitsILb1ELb0ELb1EEEE4findERS7_+0x99>
  89:	48 8b 45 c8          	mov    -0x38(%rbp),%rax
  8d:	48 89 c7             	mov    %rax,%rdi
  90:	e8 00 00 00 00       	callq  95 <_ZNSt10_HashtableINSt7__cxx1112basic_stringIcSt11char_traitsIcESaIcEEESt4pairIKS5_S5_ESaIS8_ENSt8__detail10_Select1stESt8equal_toIS5_ESt4hashIS5_ENSA_18_Mod_range_hashingENSA_20_Default_ranged_hashENSA_20_Prime_rehash_policyENSA_17_Hashtable_traitsILb1ELb0ELb1EEEE4findERS7_+0x95>
  95:	48 89 45 d8          	mov    %rax,-0x28(%rbp)
  99:	48 8b 45 d8          	mov    -0x28(%rbp),%rax
  9d:	48 8b 4d f8          	mov    -0x8(%rbp),%rcx
  a1:	64 48 33 0c 25 28 00 	xor    %fs:0x28,%rcx
  a8:	00 00 
  aa:	74 05                	je     b1 <_ZNSt10_HashtableINSt7__cxx1112basic_stringIcSt11char_traitsIcESaIcEEESt4pairIKS5_S5_ESaIS8_ENSt8__detail10_Select1stESt8equal_toIS5_ESt4hashIS5_ENSA_18_Mod_range_hashingENSA_20_Default_ranged_hashENSA_20_Prime_rehash_policyENSA_17_Hashtable_traitsILb1ELb0ELb1EEEE4findERS7_+0xb1>
  ac:	e8 00 00 00 00       	callq  b1 <_ZNSt10_HashtableINSt7__cxx1112basic_stringIcSt11char_traitsIcESaIcEEESt4pairIKS5_S5_ESaIS8_ENSt8__detail10_Select1stESt8equal_toIS5_ESt4hashIS5_ENSA_18_Mod_range_hashingENSA_20_Default_ranged_hashENSA_20_Prime_rehash_policyENSA_17_Hashtable_traitsILb1ELb0ELb1EEEE4findERS7_+0xb1>
  b1:	c9                   	leaveq 
  b2:	c3                   	retq   

Disassembly of section .text._ZNSt10_HashtableINSt7__cxx1112basic_stringIcSt11char_traitsIcESaIcEEESt4pairIKS5_S5_ESaIS8_ENSt8__detail10_Select1stESt8equal_toIS5_ESt4hashIS5_ENSA_18_Mod_range_hashingENSA_20_Default_ranged_hashENSA_20_Prime_rehash_policyENSA_17_Hashtable_traitsILb1ELb0ELb1EEEE3endEv:

0000000000000000 <_ZNSt10_HashtableINSt7__cxx1112basic_stringIcSt11char_traitsIcESaIcEEESt4pairIKS5_S5_ESaIS8_ENSt8__detail10_Select1stESt8equal_toIS5_ESt4hashIS5_ENSA_18_Mod_range_hashingENSA_20_Default_ranged_hashENSA_20_Prime_rehash_policyENSA_17_Hashtable_traitsILb1ELb0ELb1EEEE3endEv>:
   0:	55                   	push   %rbp
   1:	48 89 e5             	mov    %rsp,%rbp
   4:	48 83 ec 20          	sub    $0x20,%rsp
   8:	48 89 7d e8          	mov    %rdi,-0x18(%rbp)
   c:	64 48 8b 04 25 28 00 	mov    %fs:0x28,%rax
  13:	00 00 
  15:	48 89 45 f8          	mov    %rax,-0x8(%rbp)
  19:	31 c0                	xor    %eax,%eax
  1b:	48 8d 45 f0          	lea    -0x10(%rbp),%rax
  1f:	be 00 00 00 00       	mov    $0x0,%esi
  24:	48 89 c7             	mov    %rax,%rdi
  27:	e8 00 00 00 00       	callq  2c <_ZNSt10_HashtableINSt7__cxx1112basic_stringIcSt11char_traitsIcESaIcEEESt4pairIKS5_S5_ESaIS8_ENSt8__detail10_Select1stESt8equal_toIS5_ESt4hashIS5_ENSA_18_Mod_range_hashingENSA_20_Default_ranged_hashENSA_20_Prime_rehash_policyENSA_17_Hashtable_traitsILb1ELb0ELb1EEEE3endEv+0x2c>
  2c:	48 8b 45 f0          	mov    -0x10(%rbp),%rax
  30:	48 8b 55 f8          	mov    -0x8(%rbp),%rdx
  34:	64 48 33 14 25 28 00 	xor    %fs:0x28,%rdx
  3b:	00 00 
  3d:	74 05                	je     44 <_ZNSt10_HashtableINSt7__cxx1112basic_stringIcSt11char_traitsIcESaIcEEESt4pairIKS5_S5_ESaIS8_ENSt8__detail10_Select1stESt8equal_toIS5_ESt4hashIS5_ENSA_18_Mod_range_hashingENSA_20_Default_ranged_hashENSA_20_Prime_rehash_policyENSA_17_Hashtable_traitsILb1ELb0ELb1EEEE3endEv+0x44>
  3f:	e8 00 00 00 00       	callq  44 <_ZNSt10_HashtableINSt7__cxx1112basic_stringIcSt11char_traitsIcESaIcEEESt4pairIKS5_S5_ESaIS8_ENSt8__detail10_Select1stESt8equal_toIS5_ESt4hashIS5_ENSA_18_Mod_range_hashingENSA_20_Default_ranged_hashENSA_20_Prime_rehash_policyENSA_17_Hashtable_traitsILb1ELb0ELb1EEEE3endEv+0x44>
  44:	c9                   	leaveq 
  45:	c3                   	retq   

Disassembly of section .text._ZNSt5tupleIJRKNSt7__cxx1112basic_stringIcSt11char_traitsIcESaIcEEEEEC2IvLb1EEES7_:

0000000000000000 <_ZNSt5tupleIJRKNSt7__cxx1112basic_stringIcSt11char_traitsIcESaIcEEEEEC1IvLb1EEES7_>:
   0:	55                   	push   %rbp
   1:	48 89 e5             	mov    %rsp,%rbp
   4:	48 83 ec 10          	sub    $0x10,%rsp
   8:	48 89 7d f8          	mov    %rdi,-0x8(%rbp)
   c:	48 89 75 f0          	mov    %rsi,-0x10(%rbp)
  10:	48 8b 45 f8          	mov    -0x8(%rbp),%rax
  14:	48 8b 55 f0          	mov    -0x10(%rbp),%rdx
  18:	48 89 d6             	mov    %rdx,%rsi
  1b:	48 89 c7             	mov    %rax,%rdi
  1e:	e8 00 00 00 00       	callq  23 <_ZNSt5tupleIJRKNSt7__cxx1112basic_stringIcSt11char_traitsIcESaIcEEEEEC1IvLb1EEES7_+0x23>
  23:	90                   	nop
  24:	c9                   	leaveq 
  25:	c3                   	retq   

Disassembly of section .text._ZNSt11_Tuple_implILm0EJRKNSt7__cxx1112basic_stringIcSt11char_traitsIcESaIcEEEEEC2ES7_:

0000000000000000 <_ZNSt11_Tuple_implILm0EJRKNSt7__cxx1112basic_stringIcSt11char_traitsIcESaIcEEEEEC1ES7_>:
   0:	55                   	push   %rbp
   1:	48 89 e5             	mov    %rsp,%rbp
   4:	48 83 ec 10          	sub    $0x10,%rsp
   8:	48 89 7d f8          	mov    %rdi,-0x8(%rbp)
   c:	48 89 75 f0          	mov    %rsi,-0x10(%rbp)
  10:	48 8b 45 f8          	mov    -0x8(%rbp),%rax
  14:	48 8b 55 f0          	mov    -0x10(%rbp),%rdx
  18:	48 89 d6             	mov    %rdx,%rsi
  1b:	48 89 c7             	mov    %rax,%rdi
  1e:	e8 00 00 00 00       	callq  23 <_ZNSt11_Tuple_implILm0EJRKNSt7__cxx1112basic_stringIcSt11char_traitsIcESaIcEEEEEC1ES7_+0x23>
  23:	90                   	nop
  24:	c9                   	leaveq 
  25:	c3                   	retq   

Disassembly of section .text._ZNSt10_Head_baseILm0ERKNSt7__cxx1112basic_stringIcSt11char_traitsIcESaIcEEELb0EEC2ES7_:

0000000000000000 <_ZNSt10_Head_baseILm0ERKNSt7__cxx1112basic_stringIcSt11char_traitsIcESaIcEEELb0EEC1ES7_>:
   0:	55                   	push   %rbp
   1:	48 89 e5             	mov    %rsp,%rbp
   4:	48 89 7d f8          	mov    %rdi,-0x8(%rbp)
   8:	48 89 75 f0          	mov    %rsi,-0x10(%rbp)
   c:	48 8b 45 f8          	mov    -0x8(%rbp),%rax
  10:	48 8b 55 f0          	mov    -0x10(%rbp),%rdx
  14:	48 89 10             	mov    %rdx,(%rax)
  17:	90                   	nop
  18:	5d                   	pop    %rbp
  19:	c3                   	retq   

Disassembly of section .text._ZNSt8__detail9_Map_baseINSt7__cxx1112basic_stringIcSt11char_traitsIcESaIcEEESt4pairIKS6_S6_ESaIS9_ENS_10_Select1stESt8equal_toIS6_ESt4hashIS6_ENS_18_Mod_range_hashingENS_20_Default_ranged_hashENS_20_Prime_rehash_policyENS_17_Hashtable_traitsILb1ELb0ELb1EEELb1EEixERS8_:

0000000000000000 <_ZNSt8__detail9_Map_baseINSt7__cxx1112basic_stringIcSt11char_traitsIcESaIcEEESt4pairIKS6_S6_ESaIS9_ENS_10_Select1stESt8equal_toIS6_ESt4hashIS6_ENS_18_Mod_range_hashingENS_20_Default_ranged_hashENS_20_Prime_rehash_policyENS_17_Hashtable_traitsILb1ELb0ELb1EEELb1EEixERS8_>:
   0:	55                   	push   %rbp
   1:	48 89 e5             	mov    %rsp,%rbp
   4:	48 83 ec 50          	sub    $0x50,%rsp
   8:	48 89 7d b8          	mov    %rdi,-0x48(%rbp)
   c:	48 89 75 b0          	mov    %rsi,-0x50(%rbp)
  10:	64 48 8b 04 25 28 00 	mov    %fs:0x28,%rax
  17:	00 00 
  19:	48 89 45 f8          	mov    %rax,-0x8(%rbp)
  1d:	31 c0                	xor    %eax,%eax
  1f:	48 8b 45 b8          	mov    -0x48(%rbp),%rax
  23:	48 89 45 d8          	mov    %rax,-0x28(%rbp)
  27:	48 8b 55 b0          	mov    -0x50(%rbp),%rdx
  2b:	48 8b 45 d8          	mov    -0x28(%rbp),%rax
  2f:	48 89 d6             	mov    %rdx,%rsi
  32:	48 89 c7             	mov    %rax,%rdi
  35:	e8 00 00 00 00       	callq  3a <_ZNSt8__detail9_Map_baseINSt7__cxx1112basic_stringIcSt11char_traitsIcESaIcEEESt4pairIKS6_S6_ESaIS9_ENS_10_Select1stESt8equal_toIS6_ESt4hashIS6_ENS_18_Mod_range_hashingENS_20_Default_ranged_hashENS_20_Prime_rehash_policyENS_17_Hashtable_traitsILb1ELb0ELb1EEELb1EEixERS8_+0x3a>
  3a:	48 89 45 e0          	mov    %rax,-0x20(%rbp)
  3e:	48 8b 55 e0          	mov    -0x20(%rbp),%rdx
  42:	48 8b 4d b0          	mov    -0x50(%rbp),%rcx
  46:	48 8b 45 d8          	mov    -0x28(%rbp),%rax
  4a:	48 89 ce             	mov    %rcx,%rsi
  4d:	48 89 c7             	mov    %rax,%rdi
  50:	e8 00 00 00 00       	callq  55 <_ZNSt8__detail9_Map_baseINSt7__cxx1112basic_stringIcSt11char_traitsIcESaIcEEESt4pairIKS6_S6_ESaIS9_ENS_10_Select1stESt8equal_toIS6_ESt4hashIS6_ENS_18_Mod_range_hashingENS_20_Default_ranged_hashENS_20_Prime_rehash_policyENS_17_Hashtable_traitsILb1ELb0ELb1EEELb1EEixERS8_+0x55>
  55:	48 89 45 e8          	mov    %rax,-0x18(%rbp)
  59:	48 8b 4d e0          	mov    -0x20(%rbp),%rcx
  5d:	48 8b 55 b0          	mov    -0x50(%rbp),%rdx
  61:	48 8b 75 e8          	mov    -0x18(%rbp),%rsi
  65:	48 8b 45 d8          	mov    -0x28(%rbp),%rax
  69:	48 89 c7             	mov    %rax,%rdi
  6c:	e8 00 00 00 00       	callq  71 <_ZNSt8__detail9_Map_baseINSt7__cxx1112basic_stringIcSt11char_traitsIcESaIcEEESt4pairIKS6_S6_ESaIS9_ENS_10_Select1stESt8equal_toIS6_ESt4hashIS6_ENS_18_Mod_range_hashingENS_20_Default_ranged_hashENS_20_Prime_rehash_policyENS_17_Hashtable_traitsILb1ELb0ELb1EEELb1EEixERS8_+0x71>
  71:	48 89 45 f0          	mov    %rax,-0x10(%rbp)
  75:	48 83 7d f0 00       	cmpq   $0x0,-0x10(%rbp)
  7a:	75 60                	jne    dc <_ZNSt8__detail9_Map_baseINSt7__cxx1112basic_stringIcSt11char_traitsIcESaIcEEESt4pairIKS6_S6_ESaIS9_ENS_10_Select1stESt8equal_toIS6_ESt4hashIS6_ENS_18_Mod_range_hashingENS_20_Default_ranged_hashENS_20_Prime_rehash_policyENS_17_Hashtable_traitsILb1ELb0ELb1EEELb1EEixERS8_+0xdc>
  7c:	48 8b 55 b0          	mov    -0x50(%rbp),%rdx
  80:	48 8d 45 d0          	lea    -0x30(%rbp),%rax
  84:	48 89 d6             	mov    %rdx,%rsi
  87:	48 89 c7             	mov    %rax,%rdi
  8a:	e8 00 00 00 00       	callq  8f <_ZNSt8__detail9_Map_baseINSt7__cxx1112basic_stringIcSt11char_traitsIcESaIcEEESt4pairIKS6_S6_ESaIS9_ENS_10_Select1stESt8equal_toIS6_ESt4hashIS6_ENS_18_Mod_range_hashingENS_20_Default_ranged_hashENS_20_Prime_rehash_policyENS_17_Hashtable_traitsILb1ELb0ELb1EEELb1EEixERS8_+0x8f>
  8f:	48 8d 4d cf          	lea    -0x31(%rbp),%rcx
  93:	48 8d 55 d0          	lea    -0x30(%rbp),%rdx
  97:	48 8b 45 d8          	mov    -0x28(%rbp),%rax
  9b:	48 8d 35 00 00 00 00 	lea    0x0(%rip),%rsi        # a2 <_ZNSt8__detail9_Map_baseINSt7__cxx1112basic_stringIcSt11char_traitsIcESaIcEEESt4pairIKS6_S6_ESaIS9_ENS_10_Select1stESt8equal_toIS6_ESt4hashIS6_ENS_18_Mod_range_hashingENS_20_Default_ranged_hashENS_20_Prime_rehash_policyENS_17_Hashtable_traitsILb1ELb0ELb1EEELb1EEixERS8_+0xa2>
  a2:	48 89 c7             	mov    %rax,%rdi
  a5:	e8 00 00 00 00       	callq  aa <_ZNSt8__detail9_Map_baseINSt7__cxx1112basic_stringIcSt11char_traitsIcESaIcEEESt4pairIKS6_S6_ESaIS9_ENS_10_Select1stESt8equal_toIS6_ESt4hashIS6_ENS_18_Mod_range_hashingENS_20_Default_ranged_hashENS_20_Prime_rehash_policyENS_17_Hashtable_traitsILb1ELb0ELb1EEELb1EEixERS8_+0xaa>
  aa:	48 89 45 f0          	mov    %rax,-0x10(%rbp)
  ae:	48 8b 4d f0          	mov    -0x10(%rbp),%rcx
  b2:	48 8b 55 e0          	mov    -0x20(%rbp),%rdx
  b6:	48 8b 75 e8          	mov    -0x18(%rbp),%rsi
  ba:	48 8b 45 d8          	mov    -0x28(%rbp),%rax
  be:	48 89 c7             	mov    %rax,%rdi
  c1:	e8 00 00 00 00       	callq  c6 <_ZNSt8__detail9_Map_baseINSt7__cxx1112basic_stringIcSt11char_traitsIcESaIcEEESt4pairIKS6_S6_ESaIS9_ENS_10_Select1stESt8equal_toIS6_ESt4hashIS6_ENS_18_Mod_range_hashingENS_20_Default_ranged_hashENS_20_Prime_rehash_policyENS_17_Hashtable_traitsILb1ELb0ELb1EEELb1EEixERS8_+0xc6>
  c6:	48 89 45 d0          	mov    %rax,-0x30(%rbp)
  ca:	48 8d 45 d0          	lea    -0x30(%rbp),%rax
  ce:	48 89 c7             	mov    %rax,%rdi
  d1:	e8 00 00 00 00       	callq  d6 <_ZNSt8__detail9_Map_baseINSt7__cxx1112basic_stringIcSt11char_traitsIcESaIcEEESt4pairIKS6_S6_ESaIS9_ENS_10_Select1stESt8equal_toIS6_ESt4hashIS6_ENS_18_Mod_range_hashingENS_20_Default_ranged_hashENS_20_Prime_rehash_policyENS_17_Hashtable_traitsILb1ELb0ELb1EEELb1EEixERS8_+0xd6>
  d6:	48 83 c0 20          	add    $0x20,%rax
  da:	eb 10                	jmp    ec <_ZNSt8__detail9_Map_baseINSt7__cxx1112basic_stringIcSt11char_traitsIcESaIcEEESt4pairIKS6_S6_ESaIS9_ENS_10_Select1stESt8equal_toIS6_ESt4hashIS6_ENS_18_Mod_range_hashingENS_20_Default_ranged_hashENS_20_Prime_rehash_policyENS_17_Hashtable_traitsILb1ELb0ELb1EEELb1EEixERS8_+0xec>
  dc:	48 8b 45 f0          	mov    -0x10(%rbp),%rax
  e0:	48 89 c7             	mov    %rax,%rdi
  e3:	e8 00 00 00 00       	callq  e8 <_ZNSt8__detail9_Map_baseINSt7__cxx1112basic_stringIcSt11char_traitsIcESaIcEEESt4pairIKS6_S6_ESaIS9_ENS_10_Select1stESt8equal_toIS6_ESt4hashIS6_ENS_18_Mod_range_hashingENS_20_Default_ranged_hashENS_20_Prime_rehash_policyENS_17_Hashtable_traitsILb1ELb0ELb1EEELb1EEixERS8_+0xe8>
  e8:	48 83 c0 20          	add    $0x20,%rax
  ec:	48 8b 7d f8          	mov    -0x8(%rbp),%rdi
  f0:	64 48 33 3c 25 28 00 	xor    %fs:0x28,%rdi
  f7:	00 00 
  f9:	74 05                	je     100 <_ZNSt8__detail9_Map_baseINSt7__cxx1112basic_stringIcSt11char_traitsIcESaIcEEESt4pairIKS6_S6_ESaIS9_ENS_10_Select1stESt8equal_toIS6_ESt4hashIS6_ENS_18_Mod_range_hashingENS_20_Default_ranged_hashENS_20_Prime_rehash_policyENS_17_Hashtable_traitsILb1ELb0ELb1EEELb1EEixERS8_+0x100>
  fb:	e8 00 00 00 00       	callq  100 <_ZNSt8__detail9_Map_baseINSt7__cxx1112basic_stringIcSt11char_traitsIcESaIcEEESt4pairIKS6_S6_ESaIS9_ENS_10_Select1stESt8equal_toIS6_ESt4hashIS6_ENS_18_Mod_range_hashingENS_20_Default_ranged_hashENS_20_Prime_rehash_policyENS_17_Hashtable_traitsILb1ELb0ELb1EEELb1EEixERS8_+0x100>
 100:	c9                   	leaveq 
 101:	c3                   	retq   

Disassembly of section .text._ZNSt7__cxx1112basic_stringIcSt11char_traitsIcESaIcEE12_M_constructIPcEEvT_S7_:

0000000000000000 <_ZNSt7__cxx1112basic_stringIcSt11char_traitsIcESaIcEE12_M_constructIPcEEvT_S7_>:
   0:	55                   	push   %rbp
   1:	48 89 e5             	mov    %rsp,%rbp
   4:	48 83 ec 30          	sub    $0x30,%rsp
   8:	48 89 7d e8          	mov    %rdi,-0x18(%rbp)
   c:	48 89 75 e0          	mov    %rsi,-0x20(%rbp)
  10:	48 89 55 d8          	mov    %rdx,-0x28(%rbp)
  14:	64 48 8b 04 25 28 00 	mov    %fs:0x28,%rax
  1b:	00 00 
  1d:	48 89 45 f8          	mov    %rax,-0x8(%rbp)
  21:	31 c0                	xor    %eax,%eax
  23:	48 8b 55 d8          	mov    -0x28(%rbp),%rdx
  27:	48 8b 4d e0          	mov    -0x20(%rbp),%rcx
  2b:	48 8b 45 e8          	mov    -0x18(%rbp),%rax
  2f:	48 83 ec 08          	sub    $0x8,%rsp
  33:	41 50                	push   %r8
  35:	48 89 ce             	mov    %rcx,%rsi
  38:	48 89 c7             	mov    %rax,%rdi
  3b:	e8 00 00 00 00       	callq  40 <_ZNSt7__cxx1112basic_stringIcSt11char_traitsIcESaIcEE12_M_constructIPcEEvT_S7_+0x40>
  40:	48 83 c4 10          	add    $0x10,%rsp
  44:	90                   	nop
  45:	48 8b 45 f8          	mov    -0x8(%rbp),%rax
  49:	64 48 33 04 25 28 00 	xor    %fs:0x28,%rax
  50:	00 00 
  52:	74 05                	je     59 <_ZNSt7__cxx1112basic_stringIcSt11char_traitsIcESaIcEE12_M_constructIPcEEvT_S7_+0x59>
  54:	e8 00 00 00 00       	callq  59 <_ZNSt7__cxx1112basic_stringIcSt11char_traitsIcESaIcEE12_M_constructIPcEEvT_S7_+0x59>
  59:	c9                   	leaveq 
  5a:	c3                   	retq   

Disassembly of section .text._ZNSt12_Vector_baseI6ClientSaIS0_EE12_Vector_implC2ERKS1_:

0000000000000000 <_ZNSt12_Vector_baseI6ClientSaIS0_EE12_Vector_implC1ERKS1_>:
   0:	55                   	push   %rbp
   1:	48 89 e5             	mov    %rsp,%rbp
   4:	48 83 ec 10          	sub    $0x10,%rsp
   8:	48 89 7d f8          	mov    %rdi,-0x8(%rbp)
   c:	48 89 75 f0          	mov    %rsi,-0x10(%rbp)
  10:	48 8b 55 f0          	mov    -0x10(%rbp),%rdx
  14:	48 8b 45 f8          	mov    -0x8(%rbp),%rax
  18:	48 89 d6             	mov    %rdx,%rsi
  1b:	48 89 c7             	mov    %rax,%rdi
  1e:	e8 00 00 00 00       	callq  23 <_ZNSt12_Vector_baseI6ClientSaIS0_EE12_Vector_implC1ERKS1_+0x23>
  23:	48 8b 45 f8          	mov    -0x8(%rbp),%rax
  27:	48 c7 00 00 00 00 00 	movq   $0x0,(%rax)
  2e:	48 8b 45 f8          	mov    -0x8(%rbp),%rax
  32:	48 c7 40 08 00 00 00 	movq   $0x0,0x8(%rax)
  39:	00 
  3a:	48 8b 45 f8          	mov    -0x8(%rbp),%rax
  3e:	48 c7 40 10 00 00 00 	movq   $0x0,0x10(%rax)
  45:	00 
  46:	90                   	nop
  47:	c9                   	leaveq 
  48:	c3                   	retq   

Disassembly of section .text._ZNSt12_Vector_baseI6ClientSaIS0_EE13_M_deallocateEPS0_m:

0000000000000000 <_ZNSt12_Vector_baseI6ClientSaIS0_EE13_M_deallocateEPS0_m>:
   0:	55                   	push   %rbp
   1:	48 89 e5             	mov    %rsp,%rbp
   4:	48 83 ec 20          	sub    $0x20,%rsp
   8:	48 89 7d f8          	mov    %rdi,-0x8(%rbp)
   c:	48 89 75 f0          	mov    %rsi,-0x10(%rbp)
  10:	48 89 55 e8          	mov    %rdx,-0x18(%rbp)
  14:	48 83 7d f0 00       	cmpq   $0x0,-0x10(%rbp)
  19:	74 17                	je     32 <_ZNSt12_Vector_baseI6ClientSaIS0_EE13_M_deallocateEPS0_m+0x32>
  1b:	48 8b 45 f8          	mov    -0x8(%rbp),%rax
  1f:	48 8b 55 e8          	mov    -0x18(%rbp),%rdx
  23:	48 8b 4d f0          	mov    -0x10(%rbp),%rcx
  27:	48 89 ce             	mov    %rcx,%rsi
  2a:	48 89 c7             	mov    %rax,%rdi
  2d:	e8 00 00 00 00       	callq  32 <_ZNSt12_Vector_baseI6ClientSaIS0_EE13_M_deallocateEPS0_m+0x32>
  32:	90                   	nop
  33:	c9                   	leaveq 
  34:	c3                   	retq   

Disassembly of section .text._ZSt19__iterator_categoryIPK6ClientENSt15iterator_traitsIT_E17iterator_categoryERKS4_:

0000000000000000 <_ZSt19__iterator_categoryIPK6ClientENSt15iterator_traitsIT_E17iterator_categoryERKS4_>:
   0:	55                   	push   %rbp
   1:	48 89 e5             	mov    %rsp,%rbp
   4:	48 89 7d f8          	mov    %rdi,-0x8(%rbp)
   8:	5d                   	pop    %rbp
   9:	c3                   	retq   

Disassembly of section .text._ZSt8distanceIPK6ClientENSt15iterator_traitsIT_E15difference_typeES4_S4_:

0000000000000000 <_ZSt8distanceIPK6ClientENSt15iterator_traitsIT_E15difference_typeES4_S4_>:
   0:	55                   	push   %rbp
   1:	48 89 e5             	mov    %rsp,%rbp
   4:	53                   	push   %rbx
   5:	48 83 ec 28          	sub    $0x28,%rsp
   9:	48 89 7d d8          	mov    %rdi,-0x28(%rbp)
   d:	48 89 75 d0          	mov    %rsi,-0x30(%rbp)
  11:	64 48 8b 04 25 28 00 	mov    %fs:0x28,%rax
  18:	00 00 
  1a:	48 89 45 e8          	mov    %rax,-0x18(%rbp)
  1e:	31 c0                	xor    %eax,%eax
  20:	48 8d 45 d8          	lea    -0x28(%rbp),%rax
  24:	48 89 c7             	mov    %rax,%rdi
  27:	e8 00 00 00 00       	callq  2c <_ZSt8distanceIPK6ClientENSt15iterator_traitsIT_E15difference_typeES4_S4_+0x2c>
  2c:	48 8b 45 d8          	mov    -0x28(%rbp),%rax
  30:	48 8b 55 d0          	mov    -0x30(%rbp),%rdx
  34:	48 83 ec 08          	sub    $0x8,%rsp
  38:	53                   	push   %rbx
  39:	48 89 d6             	mov    %rdx,%rsi
  3c:	48 89 c7             	mov    %rax,%rdi
  3f:	e8 00 00 00 00       	callq  44 <_ZSt8distanceIPK6ClientENSt15iterator_traitsIT_E15difference_typeES4_S4_+0x44>
  44:	48 83 c4 10          	add    $0x10,%rsp
  48:	48 8b 4d e8          	mov    -0x18(%rbp),%rcx
  4c:	64 48 33 0c 25 28 00 	xor    %fs:0x28,%rcx
  53:	00 00 
  55:	74 05                	je     5c <_ZSt8distanceIPK6ClientENSt15iterator_traitsIT_E15difference_typeES4_S4_+0x5c>
  57:	e8 00 00 00 00       	callq  5c <_ZSt8distanceIPK6ClientENSt15iterator_traitsIT_E15difference_typeES4_S4_+0x5c>
  5c:	48 8b 5d f8          	mov    -0x8(%rbp),%rbx
  60:	c9                   	leaveq 
  61:	c3                   	retq   

Disassembly of section .text._ZNSt12_Vector_baseI6ClientSaIS0_EE11_M_allocateEm:

0000000000000000 <_ZNSt12_Vector_baseI6ClientSaIS0_EE11_M_allocateEm>:
   0:	55                   	push   %rbp
   1:	48 89 e5             	mov    %rsp,%rbp
   4:	48 83 ec 10          	sub    $0x10,%rsp
   8:	48 89 7d f8          	mov    %rdi,-0x8(%rbp)
   c:	48 89 75 f0          	mov    %rsi,-0x10(%rbp)
  10:	48 83 7d f0 00       	cmpq   $0x0,-0x10(%rbp)
  15:	74 15                	je     2c <_ZNSt12_Vector_baseI6ClientSaIS0_EE11_M_allocateEm+0x2c>
  17:	48 8b 45 f8          	mov    -0x8(%rbp),%rax
  1b:	48 8b 55 f0          	mov    -0x10(%rbp),%rdx
  1f:	48 89 d6             	mov    %rdx,%rsi
  22:	48 89 c7             	mov    %rax,%rdi
  25:	e8 00 00 00 00       	callq  2a <_ZNSt12_Vector_baseI6ClientSaIS0_EE11_M_allocateEm+0x2a>
  2a:	eb 05                	jmp    31 <_ZNSt12_Vector_baseI6ClientSaIS0_EE11_M_allocateEm+0x31>
  2c:	b8 00 00 00 00       	mov    $0x0,%eax
  31:	c9                   	leaveq 
  32:	c3                   	retq   

Disassembly of section .text._ZSt22__uninitialized_copy_aIPK6ClientPS0_S0_ET0_T_S5_S4_RSaIT1_E:

0000000000000000 <_ZSt22__uninitialized_copy_aIPK6ClientPS0_S0_ET0_T_S5_S4_RSaIT1_E>:
   0:	55                   	push   %rbp
   1:	48 89 e5             	mov    %rsp,%rbp
   4:	48 83 ec 20          	sub    $0x20,%rsp
   8:	48 89 7d f8          	mov    %rdi,-0x8(%rbp)
   c:	48 89 75 f0          	mov    %rsi,-0x10(%rbp)
  10:	48 89 55 e8          	mov    %rdx,-0x18(%rbp)
  14:	48 89 4d e0          	mov    %rcx,-0x20(%rbp)
  18:	48 8b 55 e8          	mov    -0x18(%rbp),%rdx
  1c:	48 8b 4d f0          	mov    -0x10(%rbp),%rcx
  20:	48 8b 45 f8          	mov    -0x8(%rbp),%rax
  24:	48 89 ce             	mov    %rcx,%rsi
  27:	48 89 c7             	mov    %rax,%rdi
  2a:	e8 00 00 00 00       	callq  2f <_ZSt22__uninitialized_copy_aIPK6ClientPS0_S0_ET0_T_S5_S4_RSaIT1_E+0x2f>
  2f:	c9                   	leaveq 
  30:	c3                   	retq   

Disassembly of section .text._ZSt8_DestroyIP6ClientEvT_S2_:

0000000000000000 <_ZSt8_DestroyIP6ClientEvT_S2_>:
   0:	55                   	push   %rbp
   1:	48 89 e5             	mov    %rsp,%rbp
   4:	48 83 ec 10          	sub    $0x10,%rsp
   8:	48 89 7d f8          	mov    %rdi,-0x8(%rbp)
   c:	48 89 75 f0          	mov    %rsi,-0x10(%rbp)
  10:	48 8b 55 f0          	mov    -0x10(%rbp),%rdx
  14:	48 8b 45 f8          	mov    -0x8(%rbp),%rax
  18:	48 89 d6             	mov    %rdx,%rsi
  1b:	48 89 c7             	mov    %rax,%rdi
  1e:	e8 00 00 00 00       	callq  23 <_ZSt8_DestroyIP6ClientEvT_S2_+0x23>
  23:	90                   	nop
  24:	c9                   	leaveq 
  25:	c3                   	retq   

Disassembly of section .text._ZNKSt16initializer_listISt4pairIKNSt7__cxx1112basic_stringIcSt11char_traitsIcESaIcEEES6_EE4sizeEv:

0000000000000000 <_ZNKSt16initializer_listISt4pairIKNSt7__cxx1112basic_stringIcSt11char_traitsIcESaIcEEES6_EE4sizeEv>:
   0:	55                   	push   %rbp
   1:	48 89 e5             	mov    %rsp,%rbp
   4:	48 89 7d f8          	mov    %rdi,-0x8(%rbp)
   8:	48 8b 45 f8          	mov    -0x8(%rbp),%rax
   c:	48 8b 40 08          	mov    0x8(%rax),%rax
  10:	5d                   	pop    %rbp
  11:	c3                   	retq   

Disassembly of section .text._ZNSt10_HashtableINSt7__cxx1112basic_stringIcSt11char_traitsIcESaIcEEESt4pairIKS5_S5_ESaIS8_ENSt8__detail10_Select1stESt8equal_toIS5_ESt4hashIS5_ENSA_18_Mod_range_hashingENSA_20_Default_ranged_hashENSA_20_Prime_rehash_policyENSA_17_Hashtable_traitsILb1ELb0ELb1EEEEC2IPKS8_EET_SP_mRKSF_RKSG_RKSH_RKSD_RKSB_RKS9_:

0000000000000000 <_ZNSt10_HashtableINSt7__cxx1112basic_stringIcSt11char_traitsIcESaIcEEESt4pairIKS5_S5_ESaIS8_ENSt8__detail10_Select1stESt8equal_toIS5_ESt4hashIS5_ENSA_18_Mod_range_hashingENSA_20_Default_ranged_hashENSA_20_Prime_rehash_policyENSA_17_Hashtable_traitsILb1ELb0ELb1EEEEC1IPKS8_EET_SP_mRKSF_RKSG_RKSH_RKSD_RKSB_RKS9_>:
   0:	55                   	push   %rbp
   1:	48 89 e5             	mov    %rsp,%rbp
   4:	53                   	push   %rbx
   5:	48 83 ec 78          	sub    $0x78,%rsp
   9:	48 89 7d c8          	mov    %rdi,-0x38(%rbp)
   d:	48 89 75 c0          	mov    %rsi,-0x40(%rbp)
  11:	48 89 55 b8          	mov    %rdx,-0x48(%rbp)
  15:	48 89 4d b0          	mov    %rcx,-0x50(%rbp)
  19:	4c 89 45 a8          	mov    %r8,-0x58(%rbp)
  1d:	4c 89 4d a0          	mov    %r9,-0x60(%rbp)
  21:	48 8b 45 10          	mov    0x10(%rbp),%rax
  25:	48 89 45 98          	mov    %rax,-0x68(%rbp)
  29:	48 8b 45 18          	mov    0x18(%rbp),%rax
  2d:	48 89 45 90          	mov    %rax,-0x70(%rbp)
  31:	48 8b 45 20          	mov    0x20(%rbp),%rax
  35:	48 89 45 88          	mov    %rax,-0x78(%rbp)
  39:	48 8b 45 28          	mov    0x28(%rbp),%rax
  3d:	48 89 45 80          	mov    %rax,-0x80(%rbp)
  41:	64 48 8b 04 25 28 00 	mov    %fs:0x28,%rax
  48:	00 00 
  4a:	48 89 45 e8          	mov    %rax,-0x18(%rbp)
  4e:	31 c0                	xor    %eax,%eax
  50:	4c 8b 45 88          	mov    -0x78(%rbp),%r8
  54:	48 8b 7d 90          	mov    -0x70(%rbp),%rdi
  58:	48 8b 4d 98          	mov    -0x68(%rbp),%rcx
  5c:	48 8b 55 a0          	mov    -0x60(%rbp),%rdx
  60:	48 8b 75 a8          	mov    -0x58(%rbp),%rsi
  64:	48 8b 45 c8          	mov    -0x38(%rbp),%rax
  68:	48 83 ec 08          	sub    $0x8,%rsp
  6c:	ff 75 80             	pushq  -0x80(%rbp)
  6f:	4d 89 c1             	mov    %r8,%r9
  72:	49 89 f8             	mov    %rdi,%r8
  75:	48 89 c7             	mov    %rax,%rdi
  78:	e8 00 00 00 00       	callq  7d <_ZNSt10_HashtableINSt7__cxx1112basic_stringIcSt11char_traitsIcESaIcEEESt4pairIKS5_S5_ESaIS8_ENSt8__detail10_Select1stESt8equal_toIS5_ESt4hashIS5_ENSA_18_Mod_range_hashingENSA_20_Default_ranged_hashENSA_20_Prime_rehash_policyENSA_17_Hashtable_traitsILb1ELb0ELb1EEEEC1IPKS8_EET_SP_mRKSF_RKSG_RKSH_RKSD_RKSB_RKS9_+0x7d>
  7d:	48 83 c4 10          	add    $0x10,%rsp
  81:	48 8b 55 b8          	mov    -0x48(%rbp),%rdx
  85:	48 8b 45 c0          	mov    -0x40(%rbp),%rax
  89:	48 89 d6             	mov    %rdx,%rsi
  8c:	48 89 c7             	mov    %rax,%rdi
  8f:	e8 00 00 00 00       	callq  94 <_ZNSt10_HashtableINSt7__cxx1112basic_stringIcSt11char_traitsIcESaIcEEESt4pairIKS5_S5_ESaIS8_ENSt8__detail10_Select1stESt8equal_toIS5_ESt4hashIS5_ENSA_18_Mod_range_hashingENSA_20_Default_ranged_hashENSA_20_Prime_rehash_policyENSA_17_Hashtable_traitsILb1ELb0ELb1EEEEC1IPKS8_EET_SP_mRKSF_RKSG_RKSH_RKSD_RKSB_RKS9_+0x94>
  94:	48 89 45 d8          	mov    %rax,-0x28(%rbp)
  98:	48 8b 45 c8          	mov    -0x38(%rbp),%rax
  9c:	48 8d 58 20          	lea    0x20(%rax),%rbx
  a0:	48 8b 45 c8          	mov    -0x38(%rbp),%rax
  a4:	48 8d 50 20          	lea    0x20(%rax),%rdx
  a8:	48 8b 45 d8          	mov    -0x28(%rbp),%rax
  ac:	48 89 c6             	mov    %rax,%rsi
  af:	48 89 d7             	mov    %rdx,%rdi
  b2:	e8 00 00 00 00       	callq  b7 <_ZNSt10_HashtableINSt7__cxx1112basic_stringIcSt11char_traitsIcESaIcEEESt4pairIKS5_S5_ESaIS8_ENSt8__detail10_Select1stESt8equal_toIS5_ESt4hashIS5_ENSA_18_Mod_range_hashingENSA_20_Default_ranged_hashENSA_20_Prime_rehash_policyENSA_17_Hashtable_traitsILb1ELb0ELb1EEEEC1IPKS8_EET_SP_mRKSF_RKSG_RKSH_RKSD_RKSB_RKS9_+0xb7>
  b7:	48 89 45 d0          	mov    %rax,-0x30(%rbp)
  bb:	48 8d 55 b0          	lea    -0x50(%rbp),%rdx
  bf:	48 8d 45 d0          	lea    -0x30(%rbp),%rax
  c3:	48 89 d6             	mov    %rdx,%rsi
  c6:	48 89 c7             	mov    %rax,%rdi
  c9:	e8 00 00 00 00       	callq  ce <_ZNSt10_HashtableINSt7__cxx1112basic_stringIcSt11char_traitsIcESaIcEEESt4pairIKS5_S5_ESaIS8_ENSt8__detail10_Select1stESt8equal_toIS5_ESt4hashIS5_ENSA_18_Mod_range_hashingENSA_20_Default_ranged_hashENSA_20_Prime_rehash_policyENSA_17_Hashtable_traitsILb1ELb0ELb1EEEEC1IPKS8_EET_SP_mRKSF_RKSG_RKSH_RKSD_RKSB_RKS9_+0xce>
  ce:	48 8b 00             	mov    (%rax),%rax
  d1:	48 89 c6             	mov    %rax,%rsi
  d4:	48 89 df             	mov    %rbx,%rdi
  d7:	e8 00 00 00 00       	callq  dc <_ZNSt10_HashtableINSt7__cxx1112basic_stringIcSt11char_traitsIcESaIcEEESt4pairIKS5_S5_ESaIS8_ENSt8__detail10_Select1stESt8equal_toIS5_ESt4hashIS5_ENSA_18_Mod_range_hashingENSA_20_Default_ranged_hashENSA_20_Prime_rehash_policyENSA_17_Hashtable_traitsILb1ELb0ELb1EEEEC1IPKS8_EET_SP_mRKSF_RKSG_RKSH_RKSD_RKSB_RKS9_+0xdc>
  dc:	48 89 45 e0          	mov    %rax,-0x20(%rbp)
  e0:	48 8b 45 c8          	mov    -0x38(%rbp),%rax
  e4:	48 8b 40 08          	mov    0x8(%rax),%rax
  e8:	48 39 45 e0          	cmp    %rax,-0x20(%rbp)
  ec:	76 29                	jbe    117 <_ZNSt10_HashtableINSt7__cxx1112basic_stringIcSt11char_traitsIcESaIcEEESt4pairIKS5_S5_ESaIS8_ENSt8__detail10_Select1stESt8equal_toIS5_ESt4hashIS5_ENSA_18_Mod_range_hashingENSA_20_Default_ranged_hashENSA_20_Prime_rehash_policyENSA_17_Hashtable_traitsILb1ELb0ELb1EEEEC1IPKS8_EET_SP_mRKSF_RKSG_RKSH_RKSD_RKSB_RKS9_+0x117>
  ee:	48 8b 55 e0          	mov    -0x20(%rbp),%rdx
  f2:	48 8b 45 c8          	mov    -0x38(%rbp),%rax
  f6:	48 89 d6             	mov    %rdx,%rsi
  f9:	48 89 c7             	mov    %rax,%rdi
  fc:	e8 00 00 00 00       	callq  101 <_ZNSt10_HashtableINSt7__cxx1112basic_stringIcSt11char_traitsIcESaIcEEESt4pairIKS5_S5_ESaIS8_ENSt8__detail10_Select1stESt8equal_toIS5_ESt4hashIS5_ENSA_18_Mod_range_hashingENSA_20_Default_ranged_hashENSA_20_Prime_rehash_policyENSA_17_Hashtable_traitsILb1ELb0ELb1EEEEC1IPKS8_EET_SP_mRKSF_RKSG_RKSH_RKSD_RKSB_RKS9_+0x101>
 101:	48 89 c2             	mov    %rax,%rdx
 104:	48 8b 45 c8          	mov    -0x38(%rbp),%rax
 108:	48 89 10             	mov    %rdx,(%rax)
 10b:	48 8b 45 c8          	mov    -0x38(%rbp),%rax
 10f:	48 8b 55 e0          	mov    -0x20(%rbp),%rdx
 113:	48 89 50 08          	mov    %rdx,0x8(%rax)
 117:	48 8b 45 c0          	mov    -0x40(%rbp),%rax
 11b:	48 3b 45 b8          	cmp    -0x48(%rbp),%rax
 11f:	74 34                	je     155 <_ZNSt10_HashtableINSt7__cxx1112basic_stringIcSt11char_traitsIcESaIcEEESt4pairIKS5_S5_ESaIS8_ENSt8__detail10_Select1stESt8equal_toIS5_ESt4hashIS5_ENSA_18_Mod_range_hashingENSA_20_Default_ranged_hashENSA_20_Prime_rehash_policyENSA_17_Hashtable_traitsILb1ELb0ELb1EEEEC1IPKS8_EET_SP_mRKSF_RKSG_RKSH_RKSD_RKSB_RKS9_+0x155>
 121:	48 8b 55 c0          	mov    -0x40(%rbp),%rdx
 125:	48 8b 45 c8          	mov    -0x38(%rbp),%rax
 129:	48 89 d6             	mov    %rdx,%rsi
 12c:	48 89 c7             	mov    %rax,%rdi
 12f:	e8 00 00 00 00       	callq  134 <_ZNSt10_HashtableINSt7__cxx1112basic_stringIcSt11char_traitsIcESaIcEEESt4pairIKS5_S5_ESaIS8_ENSt8__detail10_Select1stESt8equal_toIS5_ESt4hashIS5_ENSA_18_Mod_range_hashingENSA_20_Default_ranged_hashENSA_20_Prime_rehash_policyENSA_17_Hashtable_traitsILb1ELb0ELb1EEEEC1IPKS8_EET_SP_mRKSF_RKSG_RKSH_RKSD_RKSB_RKS9_+0x134>
 134:	48 83 45 c0 40       	addq   $0x40,-0x40(%rbp)
 139:	eb dc                	jmp    117 <_ZNSt10_HashtableINSt7__cxx1112basic_stringIcSt11char_traitsIcESaIcEEESt4pairIKS5_S5_ESaIS8_ENSt8__detail10_Select1stESt8equal_toIS5_ESt4hashIS5_ENSA_18_Mod_range_hashingENSA_20_Default_ranged_hashENSA_20_Prime_rehash_policyENSA_17_Hashtable_traitsILb1ELb0ELb1EEEEC1IPKS8_EET_SP_mRKSF_RKSG_RKSH_RKSD_RKSB_RKS9_+0x117>
 13b:	48 89 c3             	mov    %rax,%rbx
 13e:	48 8b 45 c8          	mov    -0x38(%rbp),%rax
 142:	48 89 c7             	mov    %rax,%rdi
 145:	e8 00 00 00 00       	callq  14a <_ZNSt10_HashtableINSt7__cxx1112basic_stringIcSt11char_traitsIcESaIcEEESt4pairIKS5_S5_ESaIS8_ENSt8__detail10_Select1stESt8equal_toIS5_ESt4hashIS5_ENSA_18_Mod_range_hashingENSA_20_Default_ranged_hashENSA_20_Prime_rehash_policyENSA_17_Hashtable_traitsILb1ELb0ELb1EEEEC1IPKS8_EET_SP_mRKSF_RKSG_RKSH_RKSD_RKSB_RKS9_+0x14a>
 14a:	48 89 d8             	mov    %rbx,%rax
 14d:	48 89 c7             	mov    %rax,%rdi
 150:	e8 00 00 00 00       	callq  155 <_ZNSt10_HashtableINSt7__cxx1112basic_stringIcSt11char_traitsIcESaIcEEESt4pairIKS5_S5_ESaIS8_ENSt8__detail10_Select1stESt8equal_toIS5_ESt4hashIS5_ENSA_18_Mod_range_hashingENSA_20_Default_ranged_hashENSA_20_Prime_rehash_policyENSA_17_Hashtable_traitsILb1ELb0ELb1EEEEC1IPKS8_EET_SP_mRKSF_RKSG_RKSH_RKSD_RKSB_RKS9_+0x155>
 155:	90                   	nop
 156:	48 8b 45 e8          	mov    -0x18(%rbp),%rax
 15a:	64 48 33 04 25 28 00 	xor    %fs:0x28,%rax
 161:	00 00 
 163:	74 05                	je     16a <_ZNSt10_HashtableINSt7__cxx1112basic_stringIcSt11char_traitsIcESaIcEEESt4pairIKS5_S5_ESaIS8_ENSt8__detail10_Select1stESt8equal_toIS5_ESt4hashIS5_ENSA_18_Mod_range_hashingENSA_20_Default_ranged_hashENSA_20_Prime_rehash_policyENSA_17_Hashtable_traitsILb1ELb0ELb1EEEEC1IPKS8_EET_SP_mRKSF_RKSG_RKSH_RKSD_RKSB_RKS9_+0x16a>
 165:	e8 00 00 00 00       	callq  16a <_ZNSt10_HashtableINSt7__cxx1112basic_stringIcSt11char_traitsIcESaIcEEESt4pairIKS5_S5_ESaIS8_ENSt8__detail10_Select1stESt8equal_toIS5_ESt4hashIS5_ENSA_18_Mod_range_hashingENSA_20_Default_ranged_hashENSA_20_Prime_rehash_policyENSA_17_Hashtable_traitsILb1ELb0ELb1EEEEC1IPKS8_EET_SP_mRKSF_RKSG_RKSH_RKSD_RKSB_RKS9_+0x16a>
 16a:	48 8b 5d f8          	mov    -0x8(%rbp),%rbx
 16e:	c9                   	leaveq 
 16f:	c3                   	retq   

Disassembly of section .text._ZN9__gnu_cxx13new_allocatorINSt8__detail10_Hash_nodeISt4pairIKNSt7__cxx1112basic_stringIcSt11char_traitsIcESaIcEEES9_ELb1EEEED2Ev:

0000000000000000 <_ZN9__gnu_cxx13new_allocatorINSt8__detail10_Hash_nodeISt4pairIKNSt7__cxx1112basic_stringIcSt11char_traitsIcESaIcEEES9_ELb1EEEED1Ev>:
   0:	55                   	push   %rbp
   1:	48 89 e5             	mov    %rsp,%rbp
   4:	48 89 7d f8          	mov    %rdi,-0x8(%rbp)
   8:	90                   	nop
   9:	5d                   	pop    %rbp
   a:	c3                   	retq   

Disassembly of section .text._ZNKSt10_HashtableINSt7__cxx1112basic_stringIcSt11char_traitsIcESaIcEEESt4pairIKS5_S5_ESaIS8_ENSt8__detail10_Select1stESt8equal_toIS5_ESt4hashIS5_ENSA_18_Mod_range_hashingENSA_20_Default_ranged_hashENSA_20_Prime_rehash_policyENSA_17_Hashtable_traitsILb1ELb0ELb1EEEE8_M_beginEv:

0000000000000000 <_ZNKSt10_HashtableINSt7__cxx1112basic_stringIcSt11char_traitsIcESaIcEEESt4pairIKS5_S5_ESaIS8_ENSt8__detail10_Select1stESt8equal_toIS5_ESt4hashIS5_ENSA_18_Mod_range_hashingENSA_20_Default_ranged_hashENSA_20_Prime_rehash_policyENSA_17_Hashtable_traitsILb1ELb0ELb1EEEE8_M_beginEv>:
   0:	55                   	push   %rbp
   1:	48 89 e5             	mov    %rsp,%rbp
   4:	48 89 7d f8          	mov    %rdi,-0x8(%rbp)
   8:	48 8b 45 f8          	mov    -0x8(%rbp),%rax
   c:	48 8b 40 10          	mov    0x10(%rax),%rax
  10:	5d                   	pop    %rbp
  11:	c3                   	retq   

Disassembly of section .text._ZNSt8__detail16_Hashtable_allocISaINS_10_Hash_nodeISt4pairIKNSt7__cxx1112basic_stringIcSt11char_traitsIcESaIcEEES8_ELb1EEEEE19_M_deallocate_nodesEPSB_:

0000000000000000 <_ZNSt8__detail16_Hashtable_allocISaINS_10_Hash_nodeISt4pairIKNSt7__cxx1112basic_stringIcSt11char_traitsIcESaIcEEES8_ELb1EEEEE19_M_deallocate_nodesEPSB_>:
   0:	55                   	push   %rbp
   1:	48 89 e5             	mov    %rsp,%rbp
   4:	48 83 ec 20          	sub    $0x20,%rsp
   8:	48 89 7d e8          	mov    %rdi,-0x18(%rbp)
   c:	48 89 75 e0          	mov    %rsi,-0x20(%rbp)
  10:	48 83 7d e0 00       	cmpq   $0x0,-0x20(%rbp)
  15:	74 2d                	je     44 <_ZNSt8__detail16_Hashtable_allocISaINS_10_Hash_nodeISt4pairIKNSt7__cxx1112basic_stringIcSt11char_traitsIcESaIcEEES8_ELb1EEEEE19_M_deallocate_nodesEPSB_+0x44>
  17:	48 8b 45 e0          	mov    -0x20(%rbp),%rax
  1b:	48 89 45 f8          	mov    %rax,-0x8(%rbp)
  1f:	48 8b 45 e0          	mov    -0x20(%rbp),%rax
  23:	48 89 c7             	mov    %rax,%rdi
  26:	e8 00 00 00 00       	callq  2b <_ZNSt8__detail16_Hashtable_allocISaINS_10_Hash_nodeISt4pairIKNSt7__cxx1112basic_stringIcSt11char_traitsIcESaIcEEES8_ELb1EEEEE19_M_deallocate_nodesEPSB_+0x2b>
  2b:	48 89 45 e0          	mov    %rax,-0x20(%rbp)
  2f:	48 8b 55 f8          	mov    -0x8(%rbp),%rdx
  33:	48 8b 45 e8          	mov    -0x18(%rbp),%rax
  37:	48 89 d6             	mov    %rdx,%rsi
  3a:	48 89 c7             	mov    %rax,%rdi
  3d:	e8 00 00 00 00       	callq  42 <_ZNSt8__detail16_Hashtable_allocISaINS_10_Hash_nodeISt4pairIKNSt7__cxx1112basic_stringIcSt11char_traitsIcESaIcEEES8_ELb1EEEEE19_M_deallocate_nodesEPSB_+0x42>
  42:	eb cc                	jmp    10 <_ZNSt8__detail16_Hashtable_allocISaINS_10_Hash_nodeISt4pairIKNSt7__cxx1112basic_stringIcSt11char_traitsIcESaIcEEES8_ELb1EEEEE19_M_deallocate_nodesEPSB_+0x10>
  44:	90                   	nop
  45:	c9                   	leaveq 
  46:	c3                   	retq   

Disassembly of section .text._ZNSt10_HashtableINSt7__cxx1112basic_stringIcSt11char_traitsIcESaIcEEESt4pairIKS5_S5_ESaIS8_ENSt8__detail10_Select1stESt8equal_toIS5_ESt4hashIS5_ENSA_18_Mod_range_hashingENSA_20_Default_ranged_hashENSA_20_Prime_rehash_policyENSA_17_Hashtable_traitsILb1ELb0ELb1EEEE21_M_deallocate_bucketsEPPNSA_15_Hash_node_baseEm:

0000000000000000 <_ZNSt10_HashtableINSt7__cxx1112basic_stringIcSt11char_traitsIcESaIcEEESt4pairIKS5_S5_ESaIS8_ENSt8__detail10_Select1stESt8equal_toIS5_ESt4hashIS5_ENSA_18_Mod_range_hashingENSA_20_Default_ranged_hashENSA_20_Prime_rehash_policyENSA_17_Hashtable_traitsILb1ELb0ELb1EEEE21_M_deallocate_bucketsEPPNSA_15_Hash_node_baseEm>:
   0:	55                   	push   %rbp
   1:	48 89 e5             	mov    %rsp,%rbp
   4:	48 83 ec 20          	sub    $0x20,%rsp
   8:	48 89 7d f8          	mov    %rdi,-0x8(%rbp)
   c:	48 89 75 f0          	mov    %rsi,-0x10(%rbp)
  10:	48 89 55 e8          	mov    %rdx,-0x18(%rbp)
  14:	48 8b 55 f0          	mov    -0x10(%rbp),%rdx
  18:	48 8b 45 f8          	mov    -0x8(%rbp),%rax
  1c:	48 89 d6             	mov    %rdx,%rsi
  1f:	48 89 c7             	mov    %rax,%rdi
  22:	e8 00 00 00 00       	callq  27 <_ZNSt10_HashtableINSt7__cxx1112basic_stringIcSt11char_traitsIcESaIcEEESt4pairIKS5_S5_ESaIS8_ENSt8__detail10_Select1stESt8equal_toIS5_ESt4hashIS5_ENSA_18_Mod_range_hashingENSA_20_Default_ranged_hashENSA_20_Prime_rehash_policyENSA_17_Hashtable_traitsILb1ELb0ELb1EEEE21_M_deallocate_bucketsEPPNSA_15_Hash_node_baseEm+0x27>
  27:	84 c0                	test   %al,%al
  29:	75 19                	jne    44 <_ZNSt10_HashtableINSt7__cxx1112basic_stringIcSt11char_traitsIcESaIcEEESt4pairIKS5_S5_ESaIS8_ENSt8__detail10_Select1stESt8equal_toIS5_ESt4hashIS5_ENSA_18_Mod_range_hashingENSA_20_Default_ranged_hashENSA_20_Prime_rehash_policyENSA_17_Hashtable_traitsILb1ELb0ELb1EEEE21_M_deallocate_bucketsEPPNSA_15_Hash_node_baseEm+0x44>
  2b:	48 8b 55 e8          	mov    -0x18(%rbp),%rdx
  2f:	48 8b 4d f0          	mov    -0x10(%rbp),%rcx
  33:	48 8b 45 f8          	mov    -0x8(%rbp),%rax
  37:	48 89 ce             	mov    %rcx,%rsi
  3a:	48 89 c7             	mov    %rax,%rdi
  3d:	e8 00 00 00 00       	callq  42 <_ZNSt10_HashtableINSt7__cxx1112basic_stringIcSt11char_traitsIcESaIcEEESt4pairIKS5_S5_ESaIS8_ENSt8__detail10_Select1stESt8equal_toIS5_ESt4hashIS5_ENSA_18_Mod_range_hashingENSA_20_Default_ranged_hashENSA_20_Prime_rehash_policyENSA_17_Hashtable_traitsILb1ELb0ELb1EEEE21_M_deallocate_bucketsEPPNSA_15_Hash_node_baseEm+0x42>
  42:	eb 01                	jmp    45 <_ZNSt10_HashtableINSt7__cxx1112basic_stringIcSt11char_traitsIcESaIcEEESt4pairIKS5_S5_ESaIS8_ENSt8__detail10_Select1stESt8equal_toIS5_ESt4hashIS5_ENSA_18_Mod_range_hashingENSA_20_Default_ranged_hashENSA_20_Prime_rehash_policyENSA_17_Hashtable_traitsILb1ELb0ELb1EEEE21_M_deallocate_bucketsEPPNSA_15_Hash_node_baseEm+0x45>
  44:	90                   	nop
  45:	c9                   	leaveq 
  46:	c3                   	retq   

Disassembly of section .text._ZNKSt8__detail15_Hash_code_baseINSt7__cxx1112basic_stringIcSt11char_traitsIcESaIcEEESt4pairIKS6_S6_ENS_10_Select1stESt4hashIS6_ENS_18_Mod_range_hashingENS_20_Default_ranged_hashELb1EE12_M_hash_codeERS8_:

0000000000000000 <_ZNKSt8__detail15_Hash_code_baseINSt7__cxx1112basic_stringIcSt11char_traitsIcESaIcEEESt4pairIKS6_S6_ENS_10_Select1stESt4hashIS6_ENS_18_Mod_range_hashingENS_20_Default_ranged_hashELb1EE12_M_hash_codeERS8_>:
   0:	55                   	push   %rbp
   1:	48 89 e5             	mov    %rsp,%rbp
   4:	48 83 ec 10          	sub    $0x10,%rsp
   8:	48 89 7d f8          	mov    %rdi,-0x8(%rbp)
   c:	48 89 75 f0          	mov    %rsi,-0x10(%rbp)
  10:	48 8b 45 f8          	mov    -0x8(%rbp),%rax
  14:	48 89 c7             	mov    %rax,%rdi
  17:	e8 00 00 00 00       	callq  1c <_ZNKSt8__detail15_Hash_code_baseINSt7__cxx1112basic_stringIcSt11char_traitsIcESaIcEEESt4pairIKS6_S6_ENS_10_Select1stESt4hashIS6_ENS_18_Mod_range_hashingENS_20_Default_ranged_hashELb1EE12_M_hash_codeERS8_+0x1c>
  1c:	48 89 c2             	mov    %rax,%rdx
  1f:	48 8b 45 f0          	mov    -0x10(%rbp),%rax
  23:	48 89 c6             	mov    %rax,%rsi
  26:	48 89 d7             	mov    %rdx,%rdi
  29:	e8 00 00 00 00       	callq  2e <_ZNKSt8__detail15_Hash_code_baseINSt7__cxx1112basic_stringIcSt11char_traitsIcESaIcEEESt4pairIKS6_S6_ENS_10_Select1stESt4hashIS6_ENS_18_Mod_range_hashingENS_20_Default_ranged_hashELb1EE12_M_hash_codeERS8_+0x2e>
  2e:	c9                   	leaveq 
  2f:	c3                   	retq   

Disassembly of section .text._ZNKSt10_HashtableINSt7__cxx1112basic_stringIcSt11char_traitsIcESaIcEEESt4pairIKS5_S5_ESaIS8_ENSt8__detail10_Select1stESt8equal_toIS5_ESt4hashIS5_ENSA_18_Mod_range_hashingENSA_20_Default_ranged_hashENSA_20_Prime_rehash_policyENSA_17_Hashtable_traitsILb1ELb0ELb1EEEE15_M_bucket_indexERS7_m:

0000000000000000 <_ZNKSt10_HashtableINSt7__cxx1112basic_stringIcSt11char_traitsIcESaIcEEESt4pairIKS5_S5_ESaIS8_ENSt8__detail10_Select1stESt8equal_toIS5_ESt4hashIS5_ENSA_18_Mod_range_hashingENSA_20_Default_ranged_hashENSA_20_Prime_rehash_policyENSA_17_Hashtable_traitsILb1ELb0ELb1EEEE15_M_bucket_indexERS7_m>:
   0:	55                   	push   %rbp
   1:	48 89 e5             	mov    %rsp,%rbp
   4:	48 83 ec 20          	sub    $0x20,%rsp
   8:	48 89 7d f8          	mov    %rdi,-0x8(%rbp)
   c:	48 89 75 f0          	mov    %rsi,-0x10(%rbp)
  10:	48 89 55 e8          	mov    %rdx,-0x18(%rbp)
  14:	48 8b 45 f8          	mov    -0x8(%rbp),%rax
  18:	48 8b 48 08          	mov    0x8(%rax),%rcx
  1c:	48 8b 55 e8          	mov    -0x18(%rbp),%rdx
  20:	48 8b 75 f0          	mov    -0x10(%rbp),%rsi
  24:	48 8b 45 f8          	mov    -0x8(%rbp),%rax
  28:	48 89 c7             	mov    %rax,%rdi
  2b:	e8 00 00 00 00       	callq  30 <_ZNKSt10_HashtableINSt7__cxx1112basic_stringIcSt11char_traitsIcESaIcEEESt4pairIKS5_S5_ESaIS8_ENSt8__detail10_Select1stESt8equal_toIS5_ESt4hashIS5_ENSA_18_Mod_range_hashingENSA_20_Default_ranged_hashENSA_20_Prime_rehash_policyENSA_17_Hashtable_traitsILb1ELb0ELb1EEEE15_M_bucket_indexERS7_m+0x30>
  30:	c9                   	leaveq 
  31:	c3                   	retq   

Disassembly of section .text._ZNKSt10_HashtableINSt7__cxx1112basic_stringIcSt11char_traitsIcESaIcEEESt4pairIKS5_S5_ESaIS8_ENSt8__detail10_Select1stESt8equal_toIS5_ESt4hashIS5_ENSA_18_Mod_range_hashingENSA_20_Default_ranged_hashENSA_20_Prime_rehash_policyENSA_17_Hashtable_traitsILb1ELb0ELb1EEEE12_M_find_nodeEmRS7_m:

0000000000000000 <_ZNKSt10_HashtableINSt7__cxx1112basic_stringIcSt11char_traitsIcESaIcEEESt4pairIKS5_S5_ESaIS8_ENSt8__detail10_Select1stESt8equal_toIS5_ESt4hashIS5_ENSA_18_Mod_range_hashingENSA_20_Default_ranged_hashENSA_20_Prime_rehash_policyENSA_17_Hashtable_traitsILb1ELb0ELb1EEEE12_M_find_nodeEmRS7_m>:
   0:	55                   	push   %rbp
   1:	48 89 e5             	mov    %rsp,%rbp
   4:	48 83 ec 30          	sub    $0x30,%rsp
   8:	48 89 7d e8          	mov    %rdi,-0x18(%rbp)
   c:	48 89 75 e0          	mov    %rsi,-0x20(%rbp)
  10:	48 89 55 d8          	mov    %rdx,-0x28(%rbp)
  14:	48 89 4d d0          	mov    %rcx,-0x30(%rbp)
  18:	48 8b 4d d0          	mov    -0x30(%rbp),%rcx
  1c:	48 8b 55 d8          	mov    -0x28(%rbp),%rdx
  20:	48 8b 75 e0          	mov    -0x20(%rbp),%rsi
  24:	48 8b 45 e8          	mov    -0x18(%rbp),%rax
  28:	48 89 c7             	mov    %rax,%rdi
  2b:	e8 00 00 00 00       	callq  30 <_ZNKSt10_HashtableINSt7__cxx1112basic_stringIcSt11char_traitsIcESaIcEEESt4pairIKS5_S5_ESaIS8_ENSt8__detail10_Select1stESt8equal_toIS5_ESt4hashIS5_ENSA_18_Mod_range_hashingENSA_20_Default_ranged_hashENSA_20_Prime_rehash_policyENSA_17_Hashtable_traitsILb1ELb0ELb1EEEE12_M_find_nodeEmRS7_m+0x30>
  30:	48 89 45 f8          	mov    %rax,-0x8(%rbp)
  34:	48 83 7d f8 00       	cmpq   $0x0,-0x8(%rbp)
  39:	74 09                	je     44 <_ZNKSt10_HashtableINSt7__cxx1112basic_stringIcSt11char_traitsIcESaIcEEESt4pairIKS5_S5_ESaIS8_ENSt8__detail10_Select1stESt8equal_toIS5_ESt4hashIS5_ENSA_18_Mod_range_hashingENSA_20_Default_ranged_hashENSA_20_Prime_rehash_policyENSA_17_Hashtable_traitsILb1ELb0ELb1EEEE12_M_find_nodeEmRS7_m+0x44>
  3b:	48 8b 45 f8          	mov    -0x8(%rbp),%rax
  3f:	48 8b 00             	mov    (%rax),%rax
  42:	eb 05                	jmp    49 <_ZNKSt10_HashtableINSt7__cxx1112basic_stringIcSt11char_traitsIcESaIcEEESt4pairIKS5_S5_ESaIS8_ENSt8__detail10_Select1stESt8equal_toIS5_ESt4hashIS5_ENSA_18_Mod_range_hashingENSA_20_Default_ranged_hashENSA_20_Prime_rehash_policyENSA_17_Hashtable_traitsILb1ELb0ELb1EEEE12_M_find_nodeEmRS7_m+0x49>
  44:	b8 00 00 00 00       	mov    $0x0,%eax
  49:	c9                   	leaveq 
  4a:	c3                   	retq   

Disassembly of section .text._ZNSt8__detail14_Node_iteratorISt4pairIKNSt7__cxx1112basic_stringIcSt11char_traitsIcESaIcEEES7_ELb0ELb1EEC2EPNS_10_Hash_nodeIS9_Lb1EEE:

0000000000000000 <_ZNSt8__detail14_Node_iteratorISt4pairIKNSt7__cxx1112basic_stringIcSt11char_traitsIcESaIcEEES7_ELb0ELb1EEC1EPNS_10_Hash_nodeIS9_Lb1EEE>:
   0:	55                   	push   %rbp
   1:	48 89 e5             	mov    %rsp,%rbp
   4:	48 83 ec 10          	sub    $0x10,%rsp
   8:	48 89 7d f8          	mov    %rdi,-0x8(%rbp)
   c:	48 89 75 f0          	mov    %rsi,-0x10(%rbp)
  10:	48 8b 45 f8          	mov    -0x8(%rbp),%rax
  14:	48 8b 55 f0          	mov    -0x10(%rbp),%rdx
  18:	48 89 d6             	mov    %rdx,%rsi
  1b:	48 89 c7             	mov    %rax,%rdi
  1e:	e8 00 00 00 00       	callq  23 <_ZNSt8__detail14_Node_iteratorISt4pairIKNSt7__cxx1112basic_stringIcSt11char_traitsIcESaIcEEES7_ELb0ELb1EEC1EPNS_10_Hash_nodeIS9_Lb1EEE+0x23>
  23:	90                   	nop
  24:	c9                   	leaveq 
  25:	c3                   	retq   

Disassembly of section .text._ZNSt8__detail21_Hash_node_value_baseISt4pairIKNSt7__cxx1112basic_stringIcSt11char_traitsIcESaIcEEES7_EEC2Ev:

0000000000000000 <_ZNSt8__detail21_Hash_node_value_baseISt4pairIKNSt7__cxx1112basic_stringIcSt11char_traitsIcESaIcEEES7_EEC1Ev>:
   0:	55                   	push   %rbp
   1:	48 89 e5             	mov    %rsp,%rbp
   4:	48 83 ec 10          	sub    $0x10,%rsp
   8:	48 89 7d f8          	mov    %rdi,-0x8(%rbp)
   c:	48 8b 45 f8          	mov    -0x8(%rbp),%rax
  10:	48 89 c7             	mov    %rax,%rdi
  13:	e8 00 00 00 00       	callq  18 <_ZNSt8__detail21_Hash_node_value_baseISt4pairIKNSt7__cxx1112basic_stringIcSt11char_traitsIcESaIcEEES7_EEC1Ev+0x18>
  18:	90                   	nop
  19:	c9                   	leaveq 
  1a:	c3                   	retq   

Disassembly of section .text._ZNSt8__detail10_Hash_nodeISt4pairIKNSt7__cxx1112basic_stringIcSt11char_traitsIcESaIcEEES7_ELb1EEC2Ev:

0000000000000000 <_ZNSt8__detail10_Hash_nodeISt4pairIKNSt7__cxx1112basic_stringIcSt11char_traitsIcESaIcEEES7_ELb1EEC1Ev>:
   0:	55                   	push   %rbp
   1:	48 89 e5             	mov    %rsp,%rbp
   4:	48 83 ec 10          	sub    $0x10,%rsp
   8:	48 89 7d f8          	mov    %rdi,-0x8(%rbp)
   c:	48 8b 45 f8          	mov    -0x8(%rbp),%rax
  10:	48 89 c7             	mov    %rax,%rdi
  13:	e8 00 00 00 00       	callq  18 <_ZNSt8__detail10_Hash_nodeISt4pairIKNSt7__cxx1112basic_stringIcSt11char_traitsIcESaIcEEES7_ELb1EEC1Ev+0x18>
  18:	90                   	nop
  19:	c9                   	leaveq 
  1a:	c3                   	retq   

Disassembly of section .text._ZSt7forwardIRKSt21piecewise_construct_tEOT_RNSt16remove_referenceIS3_E4typeE:

0000000000000000 <_ZSt7forwardIRKSt21piecewise_construct_tEOT_RNSt16remove_referenceIS3_E4typeE>:
   0:	55                   	push   %rbp
   1:	48 89 e5             	mov    %rsp,%rbp
   4:	48 89 7d f8          	mov    %rdi,-0x8(%rbp)
   8:	48 8b 45 f8          	mov    -0x8(%rbp),%rax
   c:	5d                   	pop    %rbp
   d:	c3                   	retq   

Disassembly of section .text._ZSt7forwardISt5tupleIJRKNSt7__cxx1112basic_stringIcSt11char_traitsIcESaIcEEEEEEOT_RNSt16remove_referenceISA_E4typeE:

0000000000000000 <_ZSt7forwardISt5tupleIJRKNSt7__cxx1112basic_stringIcSt11char_traitsIcESaIcEEEEEEOT_RNSt16remove_referenceISA_E4typeE>:
   0:	55                   	push   %rbp
   1:	48 89 e5             	mov    %rsp,%rbp
   4:	48 89 7d f8          	mov    %rdi,-0x8(%rbp)
   8:	48 8b 45 f8          	mov    -0x8(%rbp),%rax
   c:	5d                   	pop    %rbp
   d:	c3                   	retq   

Disassembly of section .text._ZSt7forwardISt5tupleIJEEEOT_RNSt16remove_referenceIS2_E4typeE:

0000000000000000 <_ZSt7forwardISt5tupleIJEEEOT_RNSt16remove_referenceIS2_E4typeE>:
   0:	55                   	push   %rbp
   1:	48 89 e5             	mov    %rsp,%rbp
   4:	48 89 7d f8          	mov    %rdi,-0x8(%rbp)
   8:	48 8b 45 f8          	mov    -0x8(%rbp),%rax
   c:	5d                   	pop    %rbp
   d:	c3                   	retq   

Disassembly of section .text._ZNSt8__detail16_Hashtable_allocISaINS_10_Hash_nodeISt4pairIKNSt7__cxx1112basic_stringIcSt11char_traitsIcESaIcEEES8_ELb1EEEEE16_M_allocate_nodeIJRKSt21piecewise_construct_tSt5tupleIJRS9_EESI_IJEEEEEPSB_DpOT_:

0000000000000000 <_ZNSt8__detail16_Hashtable_allocISaINS_10_Hash_nodeISt4pairIKNSt7__cxx1112basic_stringIcSt11char_traitsIcESaIcEEES8_ELb1EEEEE16_M_allocate_nodeIJRKSt21piecewise_construct_tSt5tupleIJRS9_EESI_IJEEEEEPSB_DpOT_>:
   0:	55                   	push   %rbp
   1:	48 89 e5             	mov    %rsp,%rbp
   4:	41 55                	push   %r13
   6:	41 54                	push   %r12
   8:	53                   	push   %rbx
   9:	48 83 ec 48          	sub    $0x48,%rsp
   d:	48 89 7d b8          	mov    %rdi,-0x48(%rbp)
  11:	48 89 75 b0          	mov    %rsi,-0x50(%rbp)
  15:	48 89 55 a8          	mov    %rdx,-0x58(%rbp)
  19:	48 89 4d a0          	mov    %rcx,-0x60(%rbp)
  1d:	64 48 8b 04 25 28 00 	mov    %fs:0x28,%rax
  24:	00 00 
  26:	48 89 45 d8          	mov    %rax,-0x28(%rbp)
  2a:	31 c0                	xor    %eax,%eax
  2c:	48 8b 45 b8          	mov    -0x48(%rbp),%rax
  30:	48 89 c7             	mov    %rax,%rdi
  33:	e8 00 00 00 00       	callq  38 <_ZNSt8__detail16_Hashtable_allocISaINS_10_Hash_nodeISt4pairIKNSt7__cxx1112basic_stringIcSt11char_traitsIcESaIcEEES8_ELb1EEEEE16_M_allocate_nodeIJRKSt21piecewise_construct_tSt5tupleIJRS9_EESI_IJEEEEEPSB_DpOT_+0x38>
  38:	be 01 00 00 00       	mov    $0x1,%esi
  3d:	48 89 c7             	mov    %rax,%rdi
  40:	e8 00 00 00 00       	callq  45 <_ZNSt8__detail16_Hashtable_allocISaINS_10_Hash_nodeISt4pairIKNSt7__cxx1112basic_stringIcSt11char_traitsIcESaIcEEES8_ELb1EEEEE16_M_allocate_nodeIJRKSt21piecewise_construct_tSt5tupleIJRS9_EESI_IJEEEEEPSB_DpOT_+0x45>
  45:	48 89 45 c8          	mov    %rax,-0x38(%rbp)
  49:	48 8b 45 c8          	mov    -0x38(%rbp),%rax
  4d:	48 89 c7             	mov    %rax,%rdi
  50:	e8 00 00 00 00       	callq  55 <_ZNSt8__detail16_Hashtable_allocISaINS_10_Hash_nodeISt4pairIKNSt7__cxx1112basic_stringIcSt11char_traitsIcESaIcEEES8_ELb1EEEEE16_M_allocate_nodeIJRKSt21piecewise_construct_tSt5tupleIJRS9_EESI_IJEEEEEPSB_DpOT_+0x55>
  55:	48 89 45 d0          	mov    %rax,-0x30(%rbp)
  59:	48 8b 45 b8          	mov    -0x48(%rbp),%rax
  5d:	48 89 c7             	mov    %rax,%rdi
  60:	e8 00 00 00 00       	callq  65 <_ZNSt8__detail16_Hashtable_allocISaINS_10_Hash_nodeISt4pairIKNSt7__cxx1112basic_stringIcSt11char_traitsIcESaIcEEES8_ELb1EEEEE16_M_allocate_nodeIJRKSt21piecewise_construct_tSt5tupleIJRS9_EESI_IJEEEEEPSB_DpOT_+0x65>
  65:	48 89 c2             	mov    %rax,%rdx
  68:	48 8d 45 c7          	lea    -0x39(%rbp),%rax
  6c:	48 89 d6             	mov    %rdx,%rsi
  6f:	48 89 c7             	mov    %rax,%rdi
  72:	e8 00 00 00 00       	callq  77 <_ZNSt8__detail16_Hashtable_allocISaINS_10_Hash_nodeISt4pairIKNSt7__cxx1112basic_stringIcSt11char_traitsIcESaIcEEES8_ELb1EEEEE16_M_allocate_nodeIJRKSt21piecewise_construct_tSt5tupleIJRS9_EESI_IJEEEEEPSB_DpOT_+0x77>
  77:	48 8b 45 d0          	mov    -0x30(%rbp),%rax
  7b:	48 89 c6             	mov    %rax,%rsi
  7e:	bf 50 00 00 00       	mov    $0x50,%edi
  83:	e8 00 00 00 00       	callq  88 <_ZNSt8__detail16_Hashtable_allocISaINS_10_Hash_nodeISt4pairIKNSt7__cxx1112basic_stringIcSt11char_traitsIcESaIcEEES8_ELb1EEEEE16_M_allocate_nodeIJRKSt21piecewise_construct_tSt5tupleIJRS9_EESI_IJEEEEEPSB_DpOT_+0x88>
  88:	48 85 c0             	test   %rax,%rax
  8b:	74 08                	je     95 <_ZNSt8__detail16_Hashtable_allocISaINS_10_Hash_nodeISt4pairIKNSt7__cxx1112basic_stringIcSt11char_traitsIcESaIcEEES8_ELb1EEEEE16_M_allocate_nodeIJRKSt21piecewise_construct_tSt5tupleIJRS9_EESI_IJEEEEEPSB_DpOT_+0x95>
  8d:	48 89 c7             	mov    %rax,%rdi
  90:	e8 00 00 00 00       	callq  95 <_ZNSt8__detail16_Hashtable_allocISaINS_10_Hash_nodeISt4pairIKNSt7__cxx1112basic_stringIcSt11char_traitsIcESaIcEEES8_ELb1EEEEE16_M_allocate_nodeIJRKSt21piecewise_construct_tSt5tupleIJRS9_EESI_IJEEEEEPSB_DpOT_+0x95>
  95:	48 8b 45 a0          	mov    -0x60(%rbp),%rax
  99:	48 89 c7             	mov    %rax,%rdi
  9c:	e8 00 00 00 00       	callq  a1 <_ZNSt8__detail16_Hashtable_allocISaINS_10_Hash_nodeISt4pairIKNSt7__cxx1112basic_stringIcSt11char_traitsIcESaIcEEES8_ELb1EEEEE16_M_allocate_nodeIJRKSt21piecewise_construct_tSt5tupleIJRS9_EESI_IJEEEEEPSB_DpOT_+0xa1>
  a1:	49 89 c5             	mov    %rax,%r13
  a4:	48 8b 45 a8          	mov    -0x58(%rbp),%rax
  a8:	48 89 c7             	mov    %rax,%rdi
  ab:	e8 00 00 00 00       	callq  b0 <_ZNSt8__detail16_Hashtable_allocISaINS_10_Hash_nodeISt4pairIKNSt7__cxx1112basic_stringIcSt11char_traitsIcESaIcEEES8_ELb1EEEEE16_M_allocate_nodeIJRKSt21piecewise_construct_tSt5tupleIJRS9_EESI_IJEEEEEPSB_DpOT_+0xb0>
  b0:	49 89 c4             	mov    %rax,%r12
  b3:	48 8b 45 b0          	mov    -0x50(%rbp),%rax
  b7:	48 89 c7             	mov    %rax,%rdi
  ba:	e8 00 00 00 00       	callq  bf <_ZNSt8__detail16_Hashtable_allocISaINS_10_Hash_nodeISt4pairIKNSt7__cxx1112basic_stringIcSt11char_traitsIcESaIcEEES8_ELb1EEEEE16_M_allocate_nodeIJRKSt21piecewise_construct_tSt5tupleIJRS9_EESI_IJEEEEEPSB_DpOT_+0xbf>
  bf:	48 89 c3             	mov    %rax,%rbx
  c2:	48 8b 45 d0          	mov    -0x30(%rbp),%rax
  c6:	48 89 c7             	mov    %rax,%rdi
  c9:	e8 00 00 00 00       	callq  ce <_ZNSt8__detail16_Hashtable_allocISaINS_10_Hash_nodeISt4pairIKNSt7__cxx1112basic_stringIcSt11char_traitsIcESaIcEEES8_ELb1EEEEE16_M_allocate_nodeIJRKSt21piecewise_construct_tSt5tupleIJRS9_EESI_IJEEEEEPSB_DpOT_+0xce>
  ce:	48 89 c6             	mov    %rax,%rsi
  d1:	48 8d 45 c7          	lea    -0x39(%rbp),%rax
  d5:	4d 89 e8             	mov    %r13,%r8
  d8:	4c 89 e1             	mov    %r12,%rcx
  db:	48 89 da             	mov    %rbx,%rdx
  de:	48 89 c7             	mov    %rax,%rdi
  e1:	e8 00 00 00 00       	callq  e6 <_ZNSt8__detail16_Hashtable_allocISaINS_10_Hash_nodeISt4pairIKNSt7__cxx1112basic_stringIcSt11char_traitsIcESaIcEEES8_ELb1EEEEE16_M_allocate_nodeIJRKSt21piecewise_construct_tSt5tupleIJRS9_EESI_IJEEEEEPSB_DpOT_+0xe6>
  e6:	48 8b 5d d0          	mov    -0x30(%rbp),%rbx
  ea:	48 8d 45 c7          	lea    -0x39(%rbp),%rax
  ee:	48 89 c7             	mov    %rax,%rdi
  f1:	e8 00 00 00 00       	callq  f6 <_ZNSt8__detail16_Hashtable_allocISaINS_10_Hash_nodeISt4pairIKNSt7__cxx1112basic_stringIcSt11char_traitsIcESaIcEEES8_ELb1EEEEE16_M_allocate_nodeIJRKSt21piecewise_construct_tSt5tupleIJRS9_EESI_IJEEEEEPSB_DpOT_+0xf6>
  f6:	48 89 d8             	mov    %rbx,%rax
  f9:	48 8b 4d d8          	mov    -0x28(%rbp),%rcx
  fd:	64 48 33 0c 25 28 00 	xor    %fs:0x28,%rcx
 104:	00 00 
 106:	74 5e                	je     166 <_ZNSt8__detail16_Hashtable_allocISaINS_10_Hash_nodeISt4pairIKNSt7__cxx1112basic_stringIcSt11char_traitsIcESaIcEEES8_ELb1EEEEE16_M_allocate_nodeIJRKSt21piecewise_construct_tSt5tupleIJRS9_EESI_IJEEEEEPSB_DpOT_+0x166>
 108:	eb 57                	jmp    161 <_ZNSt8__detail16_Hashtable_allocISaINS_10_Hash_nodeISt4pairIKNSt7__cxx1112basic_stringIcSt11char_traitsIcESaIcEEES8_ELb1EEEEE16_M_allocate_nodeIJRKSt21piecewise_construct_tSt5tupleIJRS9_EESI_IJEEEEEPSB_DpOT_+0x161>
 10a:	48 89 c3             	mov    %rax,%rbx
 10d:	48 8d 45 c7          	lea    -0x39(%rbp),%rax
 111:	48 89 c7             	mov    %rax,%rdi
 114:	e8 00 00 00 00       	callq  119 <_ZNSt8__detail16_Hashtable_allocISaINS_10_Hash_nodeISt4pairIKNSt7__cxx1112basic_stringIcSt11char_traitsIcESaIcEEES8_ELb1EEEEE16_M_allocate_nodeIJRKSt21piecewise_construct_tSt5tupleIJRS9_EESI_IJEEEEEPSB_DpOT_+0x119>
 119:	48 89 d8             	mov    %rbx,%rax
 11c:	eb 00                	jmp    11e <_ZNSt8__detail16_Hashtable_allocISaINS_10_Hash_nodeISt4pairIKNSt7__cxx1112basic_stringIcSt11char_traitsIcESaIcEEES8_ELb1EEEEE16_M_allocate_nodeIJRKSt21piecewise_construct_tSt5tupleIJRS9_EESI_IJEEEEEPSB_DpOT_+0x11e>
 11e:	48 89 c7             	mov    %rax,%rdi
 121:	e8 00 00 00 00       	callq  126 <_ZNSt8__detail16_Hashtable_allocISaINS_10_Hash_nodeISt4pairIKNSt7__cxx1112basic_stringIcSt11char_traitsIcESaIcEEES8_ELb1EEEEE16_M_allocate_nodeIJRKSt21piecewise_construct_tSt5tupleIJRS9_EESI_IJEEEEEPSB_DpOT_+0x126>
 126:	48 8b 45 b8          	mov    -0x48(%rbp),%rax
 12a:	48 89 c7             	mov    %rax,%rdi
 12d:	e8 00 00 00 00       	callq  132 <_ZNSt8__detail16_Hashtable_allocISaINS_10_Hash_nodeISt4pairIKNSt7__cxx1112basic_stringIcSt11char_traitsIcESaIcEEES8_ELb1EEEEE16_M_allocate_nodeIJRKSt21piecewise_construct_tSt5tupleIJRS9_EESI_IJEEEEEPSB_DpOT_+0x132>
 132:	48 89 c1             	mov    %rax,%rcx
 135:	48 8b 45 c8          	mov    -0x38(%rbp),%rax
 139:	ba 01 00 00 00       	mov    $0x1,%edx
 13e:	48 89 c6             	mov    %rax,%rsi
 141:	48 89 cf             	mov    %rcx,%rdi
 144:	e8 00 00 00 00       	callq  149 <_ZNSt8__detail16_Hashtable_allocISaINS_10_Hash_nodeISt4pairIKNSt7__cxx1112basic_stringIcSt11char_traitsIcESaIcEEES8_ELb1EEEEE16_M_allocate_nodeIJRKSt21piecewise_construct_tSt5tupleIJRS9_EESI_IJEEEEEPSB_DpOT_+0x149>
 149:	e8 00 00 00 00       	callq  14e <_ZNSt8__detail16_Hashtable_allocISaINS_10_Hash_nodeISt4pairIKNSt7__cxx1112basic_stringIcSt11char_traitsIcESaIcEEES8_ELb1EEEEE16_M_allocate_nodeIJRKSt21piecewise_construct_tSt5tupleIJRS9_EESI_IJEEEEEPSB_DpOT_+0x14e>
 14e:	48 89 c3             	mov    %rax,%rbx
 151:	e8 00 00 00 00       	callq  156 <_ZNSt8__detail16_Hashtable_allocISaINS_10_Hash_nodeISt4pairIKNSt7__cxx1112basic_stringIcSt11char_traitsIcESaIcEEES8_ELb1EEEEE16_M_allocate_nodeIJRKSt21piecewise_construct_tSt5tupleIJRS9_EESI_IJEEEEEPSB_DpOT_+0x156>
 156:	48 89 d8             	mov    %rbx,%rax
 159:	48 89 c7             	mov    %rax,%rdi
 15c:	e8 00 00 00 00       	callq  161 <_ZNSt8__detail16_Hashtable_allocISaINS_10_Hash_nodeISt4pairIKNSt7__cxx1112basic_stringIcSt11char_traitsIcESaIcEEES8_ELb1EEEEE16_M_allocate_nodeIJRKSt21piecewise_construct_tSt5tupleIJRS9_EESI_IJEEEEEPSB_DpOT_+0x161>
 161:	e8 00 00 00 00       	callq  166 <_ZNSt8__detail16_Hashtable_allocISaINS_10_Hash_nodeISt4pairIKNSt7__cxx1112basic_stringIcSt11char_traitsIcESaIcEEES8_ELb1EEEEE16_M_allocate_nodeIJRKSt21piecewise_construct_tSt5tupleIJRS9_EESI_IJEEEEEPSB_DpOT_+0x166>
 166:	48 83 c4 48          	add    $0x48,%rsp
 16a:	5b                   	pop    %rbx
 16b:	41 5c                	pop    %r12
 16d:	41 5d                	pop    %r13
 16f:	5d                   	pop    %rbp
 170:	c3                   	retq   

Disassembly of section .text._ZSt7forwardIRSt4pairIKNSt7__cxx1112basic_stringIcSt11char_traitsIcESaIcEEES6_EEOT_RNSt16remove_referenceISA_E4typeE:

0000000000000000 <_ZSt7forwardIRSt4pairIKNSt7__cxx1112basic_stringIcSt11char_traitsIcESaIcEEES6_EEOT_RNSt16remove_referenceISA_E4typeE>:
   0:	55                   	push   %rbp
   1:	48 89 e5             	mov    %rsp,%rbp
   4:	48 89 7d f8          	mov    %rdi,-0x8(%rbp)
   8:	48 8b 45 f8          	mov    -0x8(%rbp),%rax
   c:	5d                   	pop    %rbp
   d:	c3                   	retq   

Disassembly of section .text._ZNSt10_HashtableINSt7__cxx1112basic_stringIcSt11char_traitsIcESaIcEEESt4pairIKS5_S5_ESaIS8_ENSt8__detail10_Select1stESt8equal_toIS5_ESt4hashIS5_ENSA_18_Mod_range_hashingENSA_20_Default_ranged_hashENSA_20_Prime_rehash_policyENSA_17_Hashtable_traitsILb1ELb0ELb1EEEE21_M_insert_unique_nodeEmmPNSA_10_Hash_nodeIS8_Lb1EEE:

0000000000000000 <_ZNSt10_HashtableINSt7__cxx1112basic_stringIcSt11char_traitsIcESaIcEEESt4pairIKS5_S5_ESaIS8_ENSt8__detail10_Select1stESt8equal_toIS5_ESt4hashIS5_ENSA_18_Mod_range_hashingENSA_20_Default_ranged_hashENSA_20_Prime_rehash_policyENSA_17_Hashtable_traitsILb1ELb0ELb1EEEE21_M_insert_unique_nodeEmmPNSA_10_Hash_nodeIS8_Lb1EEE>:
   0:	55                   	push   %rbp
   1:	48 89 e5             	mov    %rsp,%rbp
   4:	53                   	push   %rbx
   5:	48 83 ec 68          	sub    $0x68,%rsp
   9:	48 89 7d a8          	mov    %rdi,-0x58(%rbp)
   d:	48 89 75 a0          	mov    %rsi,-0x60(%rbp)
  11:	48 89 55 98          	mov    %rdx,-0x68(%rbp)
  15:	48 89 4d 90          	mov    %rcx,-0x70(%rbp)
  19:	64 48 8b 04 25 28 00 	mov    %fs:0x28,%rax
  20:	00 00 
  22:	48 89 45 e8          	mov    %rax,-0x18(%rbp)
  26:	31 c0                	xor    %eax,%eax
  28:	48 8b 45 a8          	mov    -0x58(%rbp),%rax
  2c:	48 83 c0 20          	add    $0x20,%rax
  30:	48 89 c7             	mov    %rax,%rdi
  33:	e8 00 00 00 00       	callq  38 <_ZNSt10_HashtableINSt7__cxx1112basic_stringIcSt11char_traitsIcESaIcEEESt4pairIKS5_S5_ESaIS8_ENSt8__detail10_Select1stESt8equal_toIS5_ESt4hashIS5_ENSA_18_Mod_range_hashingENSA_20_Default_ranged_hashENSA_20_Prime_rehash_policyENSA_17_Hashtable_traitsILb1ELb0ELb1EEEE21_M_insert_unique_nodeEmmPNSA_10_Hash_nodeIS8_Lb1EEE+0x38>
  38:	48 89 45 c0          	mov    %rax,-0x40(%rbp)
  3c:	48 8d 45 c0          	lea    -0x40(%rbp),%rax
  40:	48 89 45 c8          	mov    %rax,-0x38(%rbp)
  44:	48 8b 45 a8          	mov    -0x58(%rbp),%rax
  48:	48 8d 78 20          	lea    0x20(%rax),%rdi
  4c:	48 8b 45 a8          	mov    -0x58(%rbp),%rax
  50:	48 8b 50 18          	mov    0x18(%rax),%rdx
  54:	48 8b 45 a8          	mov    -0x58(%rbp),%rax
  58:	48 8b 40 08          	mov    0x8(%rax),%rax
  5c:	b9 01 00 00 00       	mov    $0x1,%ecx
  61:	48 89 c6             	mov    %rax,%rsi
  64:	e8 00 00 00 00       	callq  69 <_ZNSt10_HashtableINSt7__cxx1112basic_stringIcSt11char_traitsIcESaIcEEESt4pairIKS5_S5_ESaIS8_ENSt8__detail10_Select1stESt8equal_toIS5_ESt4hashIS5_ENSA_18_Mod_range_hashingENSA_20_Default_ranged_hashENSA_20_Prime_rehash_policyENSA_17_Hashtable_traitsILb1ELb0ELb1EEEE21_M_insert_unique_nodeEmmPNSA_10_Hash_nodeIS8_Lb1EEE+0x69>
  69:	89 c1                	mov    %eax,%ecx
  6b:	48 89 d0             	mov    %rdx,%rax
  6e:	89 4d d0             	mov    %ecx,-0x30(%rbp)
  71:	48 89 45 d8          	mov    %rax,-0x28(%rbp)
  75:	0f b6 45 d0          	movzbl -0x30(%rbp),%eax
  79:	84 c0                	test   %al,%al
  7b:	74 57                	je     d4 <_ZNSt10_HashtableINSt7__cxx1112basic_stringIcSt11char_traitsIcESaIcEEESt4pairIKS5_S5_ESaIS8_ENSt8__detail10_Select1stESt8equal_toIS5_ESt4hashIS5_ENSA_18_Mod_range_hashingENSA_20_Default_ranged_hashENSA_20_Prime_rehash_policyENSA_17_Hashtable_traitsILb1ELb0ELb1EEEE21_M_insert_unique_nodeEmmPNSA_10_Hash_nodeIS8_Lb1EEE+0xd4>
  7d:	48 8b 4d d8          	mov    -0x28(%rbp),%rcx
  81:	48 8b 55 c8          	mov    -0x38(%rbp),%rdx
  85:	48 8b 45 a8          	mov    -0x58(%rbp),%rax
  89:	48 89 ce             	mov    %rcx,%rsi
  8c:	48 89 c7             	mov    %rax,%rdi
  8f:	e8 00 00 00 00       	callq  94 <_ZNSt10_HashtableINSt7__cxx1112basic_stringIcSt11char_traitsIcESaIcEEESt4pairIKS5_S5_ESaIS8_ENSt8__detail10_Select1stESt8equal_toIS5_ESt4hashIS5_ENSA_18_Mod_range_hashingENSA_20_Default_ranged_hashENSA_20_Prime_rehash_policyENSA_17_Hashtable_traitsILb1ELb0ELb1EEEE21_M_insert_unique_nodeEmmPNSA_10_Hash_nodeIS8_Lb1EEE+0x94>
  94:	48 8b 45 a8          	mov    -0x58(%rbp),%rax
  98:	48 89 c7             	mov    %rax,%rdi
  9b:	e8 00 00 00 00       	callq  a0 <_ZNSt10_HashtableINSt7__cxx1112basic_stringIcSt11char_traitsIcESaIcEEESt4pairIKS5_S5_ESaIS8_ENSt8__detail10_Select1stESt8equal_toIS5_ESt4hashIS5_ENSA_18_Mod_range_hashingENSA_20_Default_ranged_hashENSA_20_Prime_rehash_policyENSA_17_Hashtable_traitsILb1ELb0ELb1EEEE21_M_insert_unique_nodeEmmPNSA_10_Hash_nodeIS8_Lb1EEE+0xa0>
  a0:	48 89 c3             	mov    %rax,%rbx
  a3:	48 8b 45 90          	mov    -0x70(%rbp),%rax
  a7:	48 89 c7             	mov    %rax,%rdi
  aa:	e8 00 00 00 00       	callq  af <_ZNSt10_HashtableINSt7__cxx1112basic_stringIcSt11char_traitsIcESaIcEEESt4pairIKS5_S5_ESaIS8_ENSt8__detail10_Select1stESt8equal_toIS5_ESt4hashIS5_ENSA_18_Mod_range_hashingENSA_20_Default_ranged_hashENSA_20_Prime_rehash_policyENSA_17_Hashtable_traitsILb1ELb0ELb1EEEE21_M_insert_unique_nodeEmmPNSA_10_Hash_nodeIS8_Lb1EEE+0xaf>
  af:	48 89 c6             	mov    %rax,%rsi
  b2:	48 89 df             	mov    %rbx,%rdi
  b5:	e8 00 00 00 00       	callq  ba <_ZNSt10_HashtableINSt7__cxx1112basic_stringIcSt11char_traitsIcESaIcEEESt4pairIKS5_S5_ESaIS8_ENSt8__detail10_Select1stESt8equal_toIS5_ESt4hashIS5_ENSA_18_Mod_range_hashingENSA_20_Default_ranged_hashENSA_20_Prime_rehash_policyENSA_17_Hashtable_traitsILb1ELb0ELb1EEEE21_M_insert_unique_nodeEmmPNSA_10_Hash_nodeIS8_Lb1EEE+0xba>
  ba:	48 89 c1             	mov    %rax,%rcx
  bd:	48 8b 55 98          	mov    -0x68(%rbp),%rdx
  c1:	48 8b 45 a8          	mov    -0x58(%rbp),%rax
  c5:	48 89 ce             	mov    %rcx,%rsi
  c8:	48 89 c7             	mov    %rax,%rdi
  cb:	e8 00 00 00 00       	callq  d0 <_ZNSt10_HashtableINSt7__cxx1112basic_stringIcSt11char_traitsIcESaIcEEESt4pairIKS5_S5_ESaIS8_ENSt8__detail10_Select1stESt8equal_toIS5_ESt4hashIS5_ENSA_18_Mod_range_hashingENSA_20_Default_ranged_hashENSA_20_Prime_rehash_policyENSA_17_Hashtable_traitsILb1ELb0ELb1EEEE21_M_insert_unique_nodeEmmPNSA_10_Hash_nodeIS8_Lb1EEE+0xd0>
  d0:	48 89 45 a0          	mov    %rax,-0x60(%rbp)
  d4:	48 8b 55 98          	mov    -0x68(%rbp),%rdx
  d8:	48 8b 4d 90          	mov    -0x70(%rbp),%rcx
  dc:	48 8b 45 a8          	mov    -0x58(%rbp),%rax
  e0:	48 89 ce             	mov    %rcx,%rsi
  e3:	48 89 c7             	mov    %rax,%rdi
  e6:	e8 00 00 00 00       	callq  eb <_ZNSt10_HashtableINSt7__cxx1112basic_stringIcSt11char_traitsIcESaIcEEESt4pairIKS5_S5_ESaIS8_ENSt8__detail10_Select1stESt8equal_toIS5_ESt4hashIS5_ENSA_18_Mod_range_hashingENSA_20_Default_ranged_hashENSA_20_Prime_rehash_policyENSA_17_Hashtable_traitsILb1ELb0ELb1EEEE21_M_insert_unique_nodeEmmPNSA_10_Hash_nodeIS8_Lb1EEE+0xeb>
  eb:	48 8b 55 90          	mov    -0x70(%rbp),%rdx
  ef:	48 8b 4d a0          	mov    -0x60(%rbp),%rcx
  f3:	48 8b 45 a8          	mov    -0x58(%rbp),%rax
  f7:	48 89 ce             	mov    %rcx,%rsi
  fa:	48 89 c7             	mov    %rax,%rdi
  fd:	e8 00 00 00 00       	callq  102 <_ZNSt10_HashtableINSt7__cxx1112basic_stringIcSt11char_traitsIcESaIcEEESt4pairIKS5_S5_ESaIS8_ENSt8__detail10_Select1stESt8equal_toIS5_ESt4hashIS5_ENSA_18_Mod_range_hashingENSA_20_Default_ranged_hashENSA_20_Prime_rehash_policyENSA_17_Hashtable_traitsILb1ELb0ELb1EEEE21_M_insert_unique_nodeEmmPNSA_10_Hash_nodeIS8_Lb1EEE+0x102>
 102:	48 8b 45 a8          	mov    -0x58(%rbp),%rax
 106:	48 8b 40 18          	mov    0x18(%rax),%rax
 10a:	48 8d 50 01          	lea    0x1(%rax),%rdx
 10e:	48 8b 45 a8          	mov    -0x58(%rbp),%rax
 112:	48 89 50 18          	mov    %rdx,0x18(%rax)
 116:	48 8b 55 90          	mov    -0x70(%rbp),%rdx
 11a:	48 8d 45 b8          	lea    -0x48(%rbp),%rax
 11e:	48 89 d6             	mov    %rdx,%rsi
 121:	48 89 c7             	mov    %rax,%rdi
 124:	e8 00 00 00 00       	callq  129 <_ZNSt10_HashtableINSt7__cxx1112basic_stringIcSt11char_traitsIcESaIcEEESt4pairIKS5_S5_ESaIS8_ENSt8__detail10_Select1stESt8equal_toIS5_ESt4hashIS5_ENSA_18_Mod_range_hashingENSA_20_Default_ranged_hashENSA_20_Prime_rehash_policyENSA_17_Hashtable_traitsILb1ELb0ELb1EEEE21_M_insert_unique_nodeEmmPNSA_10_Hash_nodeIS8_Lb1EEE+0x129>
 129:	48 8b 45 b8          	mov    -0x48(%rbp),%rax
 12d:	48 8b 5d e8          	mov    -0x18(%rbp),%rbx
 131:	64 48 33 1c 25 28 00 	xor    %fs:0x28,%rbx
 138:	00 00 
 13a:	74 3a                	je     176 <_ZNSt10_HashtableINSt7__cxx1112basic_stringIcSt11char_traitsIcESaIcEEESt4pairIKS5_S5_ESaIS8_ENSt8__detail10_Select1stESt8equal_toIS5_ESt4hashIS5_ENSA_18_Mod_range_hashingENSA_20_Default_ranged_hashENSA_20_Prime_rehash_policyENSA_17_Hashtable_traitsILb1ELb0ELb1EEEE21_M_insert_unique_nodeEmmPNSA_10_Hash_nodeIS8_Lb1EEE+0x176>
 13c:	eb 33                	jmp    171 <_ZNSt10_HashtableINSt7__cxx1112basic_stringIcSt11char_traitsIcESaIcEEESt4pairIKS5_S5_ESaIS8_ENSt8__detail10_Select1stESt8equal_toIS5_ESt4hashIS5_ENSA_18_Mod_range_hashingENSA_20_Default_ranged_hashENSA_20_Prime_rehash_policyENSA_17_Hashtable_traitsILb1ELb0ELb1EEEE21_M_insert_unique_nodeEmmPNSA_10_Hash_nodeIS8_Lb1EEE+0x171>
 13e:	48 89 c7             	mov    %rax,%rdi
 141:	e8 00 00 00 00       	callq  146 <_ZNSt10_HashtableINSt7__cxx1112basic_stringIcSt11char_traitsIcESaIcEEESt4pairIKS5_S5_ESaIS8_ENSt8__detail10_Select1stESt8equal_toIS5_ESt4hashIS5_ENSA_18_Mod_range_hashingENSA_20_Default_ranged_hashENSA_20_Prime_rehash_policyENSA_17_Hashtable_traitsILb1ELb0ELb1EEEE21_M_insert_unique_nodeEmmPNSA_10_Hash_nodeIS8_Lb1EEE+0x146>
 146:	48 8b 55 90          	mov    -0x70(%rbp),%rdx
 14a:	48 8b 45 a8          	mov    -0x58(%rbp),%rax
 14e:	48 89 d6             	mov    %rdx,%rsi
 151:	48 89 c7             	mov    %rax,%rdi
 154:	e8 00 00 00 00       	callq  159 <_ZNSt10_HashtableINSt7__cxx1112basic_stringIcSt11char_traitsIcESaIcEEESt4pairIKS5_S5_ESaIS8_ENSt8__detail10_Select1stESt8equal_toIS5_ESt4hashIS5_ENSA_18_Mod_range_hashingENSA_20_Default_ranged_hashENSA_20_Prime_rehash_policyENSA_17_Hashtable_traitsILb1ELb0ELb1EEEE21_M_insert_unique_nodeEmmPNSA_10_Hash_nodeIS8_Lb1EEE+0x159>
 159:	e8 00 00 00 00       	callq  15e <_ZNSt10_HashtableINSt7__cxx1112basic_stringIcSt11char_traitsIcESaIcEEESt4pairIKS5_S5_ESaIS8_ENSt8__detail10_Select1stESt8equal_toIS5_ESt4hashIS5_ENSA_18_Mod_range_hashingENSA_20_Default_ranged_hashENSA_20_Prime_rehash_policyENSA_17_Hashtable_traitsILb1ELb0ELb1EEEE21_M_insert_unique_nodeEmmPNSA_10_Hash_nodeIS8_Lb1EEE+0x15e>
 15e:	48 89 c3             	mov    %rax,%rbx
 161:	e8 00 00 00 00       	callq  166 <_ZNSt10_HashtableINSt7__cxx1112basic_stringIcSt11char_traitsIcESaIcEEESt4pairIKS5_S5_ESaIS8_ENSt8__detail10_Select1stESt8equal_toIS5_ESt4hashIS5_ENSA_18_Mod_range_hashingENSA_20_Default_ranged_hashENSA_20_Prime_rehash_policyENSA_17_Hashtable_traitsILb1ELb0ELb1EEEE21_M_insert_unique_nodeEmmPNSA_10_Hash_nodeIS8_Lb1EEE+0x166>
 166:	48 89 d8             	mov    %rbx,%rax
 169:	48 89 c7             	mov    %rax,%rdi
 16c:	e8 00 00 00 00       	callq  171 <_ZNSt10_HashtableINSt7__cxx1112basic_stringIcSt11char_traitsIcESaIcEEESt4pairIKS5_S5_ESaIS8_ENSt8__detail10_Select1stESt8equal_toIS5_ESt4hashIS5_ENSA_18_Mod_range_hashingENSA_20_Default_ranged_hashENSA_20_Prime_rehash_policyENSA_17_Hashtable_traitsILb1ELb0ELb1EEEE21_M_insert_unique_nodeEmmPNSA_10_Hash_nodeIS8_Lb1EEE+0x171>
 171:	e8 00 00 00 00       	callq  176 <_ZNSt10_HashtableINSt7__cxx1112basic_stringIcSt11char_traitsIcESaIcEEESt4pairIKS5_S5_ESaIS8_ENSt8__detail10_Select1stESt8equal_toIS5_ESt4hashIS5_ENSA_18_Mod_range_hashingENSA_20_Default_ranged_hashENSA_20_Prime_rehash_policyENSA_17_Hashtable_traitsILb1ELb0ELb1EEEE21_M_insert_unique_nodeEmmPNSA_10_Hash_nodeIS8_Lb1EEE+0x176>
 176:	48 83 c4 68          	add    $0x68,%rsp
 17a:	5b                   	pop    %rbx
 17b:	5d                   	pop    %rbp
 17c:	c3                   	retq   

Disassembly of section .text._ZNKSt8__detail14_Node_iteratorISt4pairIKNSt7__cxx1112basic_stringIcSt11char_traitsIcESaIcEEES7_ELb0ELb1EEptEv:

0000000000000000 <_ZNKSt8__detail14_Node_iteratorISt4pairIKNSt7__cxx1112basic_stringIcSt11char_traitsIcESaIcEEES7_ELb0ELb1EEptEv>:
   0:	55                   	push   %rbp
   1:	48 89 e5             	mov    %rsp,%rbp
   4:	48 83 ec 10          	sub    $0x10,%rsp
   8:	48 89 7d f8          	mov    %rdi,-0x8(%rbp)
   c:	48 8b 45 f8          	mov    -0x8(%rbp),%rax
  10:	48 8b 00             	mov    (%rax),%rax
  13:	48 89 c7             	mov    %rax,%rdi
  16:	e8 00 00 00 00       	callq  1b <_ZNKSt8__detail14_Node_iteratorISt4pairIKNSt7__cxx1112basic_stringIcSt11char_traitsIcESaIcEEES7_ELb0ELb1EEptEv+0x1b>
  1b:	c9                   	leaveq 
  1c:	c3                   	retq   

Disassembly of section .text._ZNSt8__detail21_Hash_node_value_baseISt4pairIKNSt7__cxx1112basic_stringIcSt11char_traitsIcESaIcEEES7_EE4_M_vEv:

0000000000000000 <_ZNSt8__detail21_Hash_node_value_baseISt4pairIKNSt7__cxx1112basic_stringIcSt11char_traitsIcESaIcEEES7_EE4_M_vEv>:
   0:	55                   	push   %rbp
   1:	48 89 e5             	mov    %rsp,%rbp
   4:	48 83 ec 10          	sub    $0x10,%rsp
   8:	48 89 7d f8          	mov    %rdi,-0x8(%rbp)
   c:	48 8b 45 f8          	mov    -0x8(%rbp),%rax
  10:	48 89 c7             	mov    %rax,%rdi
  13:	e8 00 00 00 00       	callq  18 <_ZNSt8__detail21_Hash_node_value_baseISt4pairIKNSt7__cxx1112basic_stringIcSt11char_traitsIcESaIcEEES7_EE4_M_vEv+0x18>
  18:	c9                   	leaveq 
  19:	c3                   	retq   

Disassembly of section .text._ZNSt7__cxx1112basic_stringIcSt11char_traitsIcESaIcEE16_M_construct_auxIPcEEvT_S7_St12__false_type:

0000000000000000 <_ZNSt7__cxx1112basic_stringIcSt11char_traitsIcESaIcEE16_M_construct_auxIPcEEvT_S7_St12__false_type>:
   0:	55                   	push   %rbp
   1:	48 89 e5             	mov    %rsp,%rbp
   4:	48 83 ec 30          	sub    $0x30,%rsp
   8:	48 89 7d e8          	mov    %rdi,-0x18(%rbp)
   c:	48 89 75 e0          	mov    %rsi,-0x20(%rbp)
  10:	48 89 55 d8          	mov    %rdx,-0x28(%rbp)
  14:	64 48 8b 04 25 28 00 	mov    %fs:0x28,%rax
  1b:	00 00 
  1d:	48 89 45 f8          	mov    %rax,-0x8(%rbp)
  21:	31 c0                	xor    %eax,%eax
  23:	48 8b 55 d8          	mov    -0x28(%rbp),%rdx
  27:	48 8b 4d e0          	mov    -0x20(%rbp),%rcx
  2b:	48 8b 45 e8          	mov    -0x18(%rbp),%rax
  2f:	48 83 ec 08          	sub    $0x8,%rsp
  33:	41 50                	push   %r8
  35:	48 89 ce             	mov    %rcx,%rsi
  38:	48 89 c7             	mov    %rax,%rdi
  3b:	e8 00 00 00 00       	callq  40 <_ZNSt7__cxx1112basic_stringIcSt11char_traitsIcESaIcEE16_M_construct_auxIPcEEvT_S7_St12__false_type+0x40>
  40:	48 83 c4 10          	add    $0x10,%rsp
  44:	90                   	nop
  45:	48 8b 45 f8          	mov    -0x8(%rbp),%rax
  49:	64 48 33 04 25 28 00 	xor    %fs:0x28,%rax
  50:	00 00 
  52:	74 05                	je     59 <_ZNSt7__cxx1112basic_stringIcSt11char_traitsIcESaIcEE16_M_construct_auxIPcEEvT_S7_St12__false_type+0x59>
  54:	e8 00 00 00 00       	callq  59 <_ZNSt7__cxx1112basic_stringIcSt11char_traitsIcESaIcEE16_M_construct_auxIPcEEvT_S7_St12__false_type+0x59>
  59:	c9                   	leaveq 
  5a:	c3                   	retq   

Disassembly of section .text._ZNSaI6ClientEC2ERKS0_:

0000000000000000 <_ZNSaI6ClientEC1ERKS0_>:
   0:	55                   	push   %rbp
   1:	48 89 e5             	mov    %rsp,%rbp
   4:	48 83 ec 10          	sub    $0x10,%rsp
   8:	48 89 7d f8          	mov    %rdi,-0x8(%rbp)
   c:	48 89 75 f0          	mov    %rsi,-0x10(%rbp)
  10:	48 8b 55 f0          	mov    -0x10(%rbp),%rdx
  14:	48 8b 45 f8          	mov    -0x8(%rbp),%rax
  18:	48 89 d6             	mov    %rdx,%rsi
  1b:	48 89 c7             	mov    %rax,%rdi
  1e:	e8 00 00 00 00       	callq  23 <_ZNSaI6ClientEC1ERKS0_+0x23>
  23:	90                   	nop
  24:	c9                   	leaveq 
  25:	c3                   	retq   

Disassembly of section .text._ZNSt16allocator_traitsISaI6ClientEE10deallocateERS1_PS0_m:

0000000000000000 <_ZNSt16allocator_traitsISaI6ClientEE10deallocateERS1_PS0_m>:
   0:	55                   	push   %rbp
   1:	48 89 e5             	mov    %rsp,%rbp
   4:	48 83 ec 20          	sub    $0x20,%rsp
   8:	48 89 7d f8          	mov    %rdi,-0x8(%rbp)
   c:	48 89 75 f0          	mov    %rsi,-0x10(%rbp)
  10:	48 89 55 e8          	mov    %rdx,-0x18(%rbp)
  14:	48 8b 55 e8          	mov    -0x18(%rbp),%rdx
  18:	48 8b 4d f0          	mov    -0x10(%rbp),%rcx
  1c:	48 8b 45 f8          	mov    -0x8(%rbp),%rax
  20:	48 89 ce             	mov    %rcx,%rsi
  23:	48 89 c7             	mov    %rax,%rdi
  26:	e8 00 00 00 00       	callq  2b <_ZNSt16allocator_traitsISaI6ClientEE10deallocateERS1_PS0_m+0x2b>
  2b:	90                   	nop
  2c:	c9                   	leaveq 
  2d:	c3                   	retq   

Disassembly of section .text._ZSt10__distanceIPK6ClientENSt15iterator_traitsIT_E15difference_typeES4_S4_St26random_access_iterator_tag:

0000000000000000 <_ZSt10__distanceIPK6ClientENSt15iterator_traitsIT_E15difference_typeES4_S4_St26random_access_iterator_tag>:
   0:	55                   	push   %rbp
   1:	48 89 e5             	mov    %rsp,%rbp
   4:	48 89 7d f8          	mov    %rdi,-0x8(%rbp)
   8:	48 89 75 f0          	mov    %rsi,-0x10(%rbp)
   c:	48 8b 55 f0          	mov    -0x10(%rbp),%rdx
  10:	48 8b 45 f8          	mov    -0x8(%rbp),%rax
  14:	48 29 c2             	sub    %rax,%rdx
  17:	48 89 d0             	mov    %rdx,%rax
  1a:	48 c1 f8 03          	sar    $0x3,%rax
  1e:	48 89 c2             	mov    %rax,%rdx
  21:	48 b8 cd cc cc cc cc 	movabs $0xcccccccccccccccd,%rax
  28:	cc cc cc 
  2b:	48 0f af c2          	imul   %rdx,%rax
  2f:	5d                   	pop    %rbp
  30:	c3                   	retq   

Disassembly of section .text._ZNSt16allocator_traitsISaI6ClientEE8allocateERS1_m:

0000000000000000 <_ZNSt16allocator_traitsISaI6ClientEE8allocateERS1_m>:
   0:	55                   	push   %rbp
   1:	48 89 e5             	mov    %rsp,%rbp
   4:	48 83 ec 10          	sub    $0x10,%rsp
   8:	48 89 7d f8          	mov    %rdi,-0x8(%rbp)
   c:	48 89 75 f0          	mov    %rsi,-0x10(%rbp)
  10:	48 8b 4d f0          	mov    -0x10(%rbp),%rcx
  14:	48 8b 45 f8          	mov    -0x8(%rbp),%rax
  18:	ba 00 00 00 00       	mov    $0x0,%edx
  1d:	48 89 ce             	mov    %rcx,%rsi
  20:	48 89 c7             	mov    %rax,%rdi
  23:	e8 00 00 00 00       	callq  28 <_ZNSt16allocator_traitsISaI6ClientEE8allocateERS1_m+0x28>
  28:	c9                   	leaveq 
  29:	c3                   	retq   

Disassembly of section .text._ZSt18uninitialized_copyIPK6ClientPS0_ET0_T_S5_S4_:

0000000000000000 <_ZSt18uninitialized_copyIPK6ClientPS0_ET0_T_S5_S4_>:
   0:	55                   	push   %rbp
   1:	48 89 e5             	mov    %rsp,%rbp
   4:	48 83 ec 30          	sub    $0x30,%rsp
   8:	48 89 7d e8          	mov    %rdi,-0x18(%rbp)
   c:	48 89 75 e0          	mov    %rsi,-0x20(%rbp)
  10:	48 89 55 d8          	mov    %rdx,-0x28(%rbp)
  14:	c6 45 ff 01          	movb   $0x1,-0x1(%rbp)
  18:	48 8b 55 d8          	mov    -0x28(%rbp),%rdx
  1c:	48 8b 4d e0          	mov    -0x20(%rbp),%rcx
  20:	48 8b 45 e8          	mov    -0x18(%rbp),%rax
  24:	48 89 ce             	mov    %rcx,%rsi
  27:	48 89 c7             	mov    %rax,%rdi
  2a:	e8 00 00 00 00       	callq  2f <_ZSt18uninitialized_copyIPK6ClientPS0_ET0_T_S5_S4_+0x2f>
  2f:	c9                   	leaveq 
  30:	c3                   	retq   

Disassembly of section .text._ZSt11__addressofI6ClientEPT_RS1_:

0000000000000000 <_ZSt11__addressofI6ClientEPT_RS1_>:
   0:	55                   	push   %rbp
   1:	48 89 e5             	mov    %rsp,%rbp
   4:	48 89 7d f8          	mov    %rdi,-0x8(%rbp)
   8:	48 8b 45 f8          	mov    -0x8(%rbp),%rax
   c:	5d                   	pop    %rbp
   d:	c3                   	retq   

Disassembly of section .text._ZNSt12_Destroy_auxILb0EE9__destroyIP6ClientEEvT_S4_:

0000000000000000 <_ZNSt12_Destroy_auxILb0EE9__destroyIP6ClientEEvT_S4_>:
   0:	55                   	push   %rbp
   1:	48 89 e5             	mov    %rsp,%rbp
   4:	48 83 ec 10          	sub    $0x10,%rsp
   8:	48 89 7d f8          	mov    %rdi,-0x8(%rbp)
   c:	48 89 75 f0          	mov    %rsi,-0x10(%rbp)
  10:	48 8b 45 f8          	mov    -0x8(%rbp),%rax
  14:	48 3b 45 f0          	cmp    -0x10(%rbp),%rax
  18:	74 1b                	je     35 <_ZNSt12_Destroy_auxILb0EE9__destroyIP6ClientEEvT_S4_+0x35>
  1a:	48 8b 45 f8          	mov    -0x8(%rbp),%rax
  1e:	48 89 c7             	mov    %rax,%rdi
  21:	e8 00 00 00 00       	callq  26 <_ZNSt12_Destroy_auxILb0EE9__destroyIP6ClientEEvT_S4_+0x26>
  26:	48 89 c7             	mov    %rax,%rdi
  29:	e8 00 00 00 00       	callq  2e <_ZNSt12_Destroy_auxILb0EE9__destroyIP6ClientEEvT_S4_+0x2e>
  2e:	48 83 45 f8 28       	addq   $0x28,-0x8(%rbp)
  33:	eb db                	jmp    10 <_ZNSt12_Destroy_auxILb0EE9__destroyIP6ClientEEvT_S4_+0x10>
  35:	90                   	nop
  36:	c9                   	leaveq 
  37:	c3                   	retq   

Disassembly of section .text._ZNSt10_HashtableINSt7__cxx1112basic_stringIcSt11char_traitsIcESaIcEEESt4pairIKS5_S5_ESaIS8_ENSt8__detail10_Select1stESt8equal_toIS5_ESt4hashIS5_ENSA_18_Mod_range_hashingENSA_20_Default_ranged_hashENSA_20_Prime_rehash_policyENSA_17_Hashtable_traitsILb1ELb0ELb1EEEEC2ERKSF_RKSG_RKSH_RKSD_RKSB_RKS9_:

0000000000000000 <_ZNSt10_HashtableINSt7__cxx1112basic_stringIcSt11char_traitsIcESaIcEEESt4pairIKS5_S5_ESaIS8_ENSt8__detail10_Select1stESt8equal_toIS5_ESt4hashIS5_ENSA_18_Mod_range_hashingENSA_20_Default_ranged_hashENSA_20_Prime_rehash_policyENSA_17_Hashtable_traitsILb1ELb0ELb1EEEEC1ERKSF_RKSG_RKSH_RKSD_RKSB_RKS9_>:
   0:	55                   	push   %rbp
   1:	48 89 e5             	mov    %rsp,%rbp
   4:	53                   	push   %rbx
   5:	48 83 ec 58          	sub    $0x58,%rsp
   9:	48 89 7d d8          	mov    %rdi,-0x28(%rbp)
   d:	48 89 75 d0          	mov    %rsi,-0x30(%rbp)
  11:	48 89 55 c8          	mov    %rdx,-0x38(%rbp)
  15:	48 89 4d c0          	mov    %rcx,-0x40(%rbp)
  19:	4c 89 45 b8          	mov    %r8,-0x48(%rbp)
  1d:	4c 89 4d b0          	mov    %r9,-0x50(%rbp)
  21:	48 8b 45 10          	mov    0x10(%rbp),%rax
  25:	48 89 45 a8          	mov    %rax,-0x58(%rbp)
  29:	64 48 8b 04 25 28 00 	mov    %fs:0x28,%rax
  30:	00 00 
  32:	48 89 45 e8          	mov    %rax,-0x18(%rbp)
  36:	31 c0                	xor    %eax,%eax
  38:	4c 8b 45 b8          	mov    -0x48(%rbp),%r8
  3c:	48 8b 7d c0          	mov    -0x40(%rbp),%rdi
  40:	48 8b 4d c8          	mov    -0x38(%rbp),%rcx
  44:	48 8b 55 d0          	mov    -0x30(%rbp),%rdx
  48:	48 8b 75 b0          	mov    -0x50(%rbp),%rsi
  4c:	48 8b 45 d8          	mov    -0x28(%rbp),%rax
  50:	4d 89 c1             	mov    %r8,%r9
  53:	49 89 f8             	mov    %rdi,%r8
  56:	48 89 c7             	mov    %rax,%rdi
  59:	e8 00 00 00 00       	callq  5e <_ZNSt10_HashtableINSt7__cxx1112basic_stringIcSt11char_traitsIcESaIcEEESt4pairIKS5_S5_ESaIS8_ENSt8__detail10_Select1stESt8equal_toIS5_ESt4hashIS5_ENSA_18_Mod_range_hashingENSA_20_Default_ranged_hashENSA_20_Prime_rehash_policyENSA_17_Hashtable_traitsILb1ELb0ELb1EEEEC1ERKSF_RKSG_RKSH_RKSD_RKSB_RKS9_+0x5e>
  5e:	48 8b 55 a8          	mov    -0x58(%rbp),%rdx
  62:	48 8d 45 e7          	lea    -0x19(%rbp),%rax
  66:	48 89 d6             	mov    %rdx,%rsi
  69:	48 89 c7             	mov    %rax,%rdi
  6c:	e8 00 00 00 00       	callq  71 <_ZNSt10_HashtableINSt7__cxx1112basic_stringIcSt11char_traitsIcESaIcEEESt4pairIKS5_S5_ESaIS8_ENSt8__detail10_Select1stESt8equal_toIS5_ESt4hashIS5_ENSA_18_Mod_range_hashingENSA_20_Default_ranged_hashENSA_20_Prime_rehash_policyENSA_17_Hashtable_traitsILb1ELb0ELb1EEEEC1ERKSF_RKSG_RKSH_RKSD_RKSB_RKS9_+0x71>
  71:	48 8d 55 e7          	lea    -0x19(%rbp),%rdx
  75:	48 8b 45 d8          	mov    -0x28(%rbp),%rax
  79:	48 89 d6             	mov    %rdx,%rsi
  7c:	48 89 c7             	mov    %rax,%rdi
  7f:	e8 00 00 00 00       	callq  84 <_ZNSt10_HashtableINSt7__cxx1112basic_stringIcSt11char_traitsIcESaIcEEESt4pairIKS5_S5_ESaIS8_ENSt8__detail10_Select1stESt8equal_toIS5_ESt4hashIS5_ENSA_18_Mod_range_hashingENSA_20_Default_ranged_hashENSA_20_Prime_rehash_policyENSA_17_Hashtable_traitsILb1ELb0ELb1EEEEC1ERKSF_RKSG_RKSH_RKSD_RKSB_RKS9_+0x84>
  84:	48 8d 45 e7          	lea    -0x19(%rbp),%rax
  88:	48 89 c7             	mov    %rax,%rdi
  8b:	e8 00 00 00 00       	callq  90 <_ZNSt10_HashtableINSt7__cxx1112basic_stringIcSt11char_traitsIcESaIcEEESt4pairIKS5_S5_ESaIS8_ENSt8__detail10_Select1stESt8equal_toIS5_ESt4hashIS5_ENSA_18_Mod_range_hashingENSA_20_Default_ranged_hashENSA_20_Prime_rehash_policyENSA_17_Hashtable_traitsILb1ELb0ELb1EEEEC1ERKSF_RKSG_RKSH_RKSD_RKSB_RKS9_+0x90>
  90:	48 8b 45 d8          	mov    -0x28(%rbp),%rax
  94:	48 8d 50 30          	lea    0x30(%rax),%rdx
  98:	48 8b 45 d8          	mov    -0x28(%rbp),%rax
  9c:	48 89 10             	mov    %rdx,(%rax)
  9f:	48 8b 45 d8          	mov    -0x28(%rbp),%rax
  a3:	48 c7 40 08 01 00 00 	movq   $0x1,0x8(%rax)
  aa:	00 
  ab:	48 8b 45 d8          	mov    -0x28(%rbp),%rax
  af:	48 83 c0 10          	add    $0x10,%rax
  b3:	48 89 c7             	mov    %rax,%rdi
  b6:	e8 00 00 00 00       	callq  bb <_ZNSt10_HashtableINSt7__cxx1112basic_stringIcSt11char_traitsIcESaIcEEESt4pairIKS5_S5_ESaIS8_ENSt8__detail10_Select1stESt8equal_toIS5_ESt4hashIS5_ENSA_18_Mod_range_hashingENSA_20_Default_ranged_hashENSA_20_Prime_rehash_policyENSA_17_Hashtable_traitsILb1ELb0ELb1EEEEC1ERKSF_RKSG_RKSH_RKSD_RKSB_RKS9_+0xbb>
  bb:	48 8b 45 d8          	mov    -0x28(%rbp),%rax
  bf:	48 c7 40 18 00 00 00 	movq   $0x0,0x18(%rax)
  c6:	00 
  c7:	48 8b 45 d8          	mov    -0x28(%rbp),%rax
  cb:	48 83 c0 20          	add    $0x20,%rax
  cf:	f3 0f 10 05 00 00 00 	movss  0x0(%rip),%xmm0        # d7 <_ZNSt10_HashtableINSt7__cxx1112basic_stringIcSt11char_traitsIcESaIcEEESt4pairIKS5_S5_ESaIS8_ENSt8__detail10_Select1stESt8equal_toIS5_ESt4hashIS5_ENSA_18_Mod_range_hashingENSA_20_Default_ranged_hashENSA_20_Prime_rehash_policyENSA_17_Hashtable_traitsILb1ELb0ELb1EEEEC1ERKSF_RKSG_RKSH_RKSD_RKSB_RKS9_+0xd7>
  d6:	00 
  d7:	48 89 c7             	mov    %rax,%rdi
  da:	e8 00 00 00 00       	callq  df <_ZNSt10_HashtableINSt7__cxx1112basic_stringIcSt11char_traitsIcESaIcEEESt4pairIKS5_S5_ESaIS8_ENSt8__detail10_Select1stESt8equal_toIS5_ESt4hashIS5_ENSA_18_Mod_range_hashingENSA_20_Default_ranged_hashENSA_20_Prime_rehash_policyENSA_17_Hashtable_traitsILb1ELb0ELb1EEEEC1ERKSF_RKSG_RKSH_RKSD_RKSB_RKS9_+0xdf>
  df:	48 8b 45 d8          	mov    -0x28(%rbp),%rax
  e3:	48 c7 40 30 00 00 00 	movq   $0x0,0x30(%rax)
  ea:	00 
  eb:	90                   	nop
  ec:	48 8b 45 e8          	mov    -0x18(%rbp),%rax
  f0:	64 48 33 04 25 28 00 	xor    %fs:0x28,%rax
  f7:	00 00 
  f9:	74 21                	je     11c <_ZNSt10_HashtableINSt7__cxx1112basic_stringIcSt11char_traitsIcESaIcEEESt4pairIKS5_S5_ESaIS8_ENSt8__detail10_Select1stESt8equal_toIS5_ESt4hashIS5_ENSA_18_Mod_range_hashingENSA_20_Default_ranged_hashENSA_20_Prime_rehash_policyENSA_17_Hashtable_traitsILb1ELb0ELb1EEEEC1ERKSF_RKSG_RKSH_RKSD_RKSB_RKS9_+0x11c>
  fb:	eb 1a                	jmp    117 <_ZNSt10_HashtableINSt7__cxx1112basic_stringIcSt11char_traitsIcESaIcEEESt4pairIKS5_S5_ESaIS8_ENSt8__detail10_Select1stESt8equal_toIS5_ESt4hashIS5_ENSA_18_Mod_range_hashingENSA_20_Default_ranged_hashENSA_20_Prime_rehash_policyENSA_17_Hashtable_traitsILb1ELb0ELb1EEEEC1ERKSF_RKSG_RKSH_RKSD_RKSB_RKS9_+0x117>
  fd:	48 89 c3             	mov    %rax,%rbx
 100:	48 8d 45 e7          	lea    -0x19(%rbp),%rax
 104:	48 89 c7             	mov    %rax,%rdi
 107:	e8 00 00 00 00       	callq  10c <_ZNSt10_HashtableINSt7__cxx1112basic_stringIcSt11char_traitsIcESaIcEEESt4pairIKS5_S5_ESaIS8_ENSt8__detail10_Select1stESt8equal_toIS5_ESt4hashIS5_ENSA_18_Mod_range_hashingENSA_20_Default_ranged_hashENSA_20_Prime_rehash_policyENSA_17_Hashtable_traitsILb1ELb0ELb1EEEEC1ERKSF_RKSG_RKSH_RKSD_RKSB_RKS9_+0x10c>
 10c:	48 89 d8             	mov    %rbx,%rax
 10f:	48 89 c7             	mov    %rax,%rdi
 112:	e8 00 00 00 00       	callq  117 <_ZNSt10_HashtableINSt7__cxx1112basic_stringIcSt11char_traitsIcESaIcEEESt4pairIKS5_S5_ESaIS8_ENSt8__detail10_Select1stESt8equal_toIS5_ESt4hashIS5_ENSA_18_Mod_range_hashingENSA_20_Default_ranged_hashENSA_20_Prime_rehash_policyENSA_17_Hashtable_traitsILb1ELb0ELb1EEEEC1ERKSF_RKSG_RKSH_RKSD_RKSB_RKS9_+0x117>
 117:	e8 00 00 00 00       	callq  11c <_ZNSt10_HashtableINSt7__cxx1112basic_stringIcSt11char_traitsIcESaIcEEESt4pairIKS5_S5_ESaIS8_ENSt8__detail10_Select1stESt8equal_toIS5_ESt4hashIS5_ENSA_18_Mod_range_hashingENSA_20_Default_ranged_hashENSA_20_Prime_rehash_policyENSA_17_Hashtable_traitsILb1ELb0ELb1EEEEC1ERKSF_RKSG_RKSH_RKSD_RKSB_RKS9_+0x11c>
 11c:	48 83 c4 58          	add    $0x58,%rsp
 120:	5b                   	pop    %rbx
 121:	5d                   	pop    %rbp
 122:	c3                   	retq   

Disassembly of section .text._ZNSt8__detail13__distance_fwIPKSt4pairIKNSt7__cxx1112basic_stringIcSt11char_traitsIcESaIcEEES7_EEENSt15iterator_traitsIT_E15difference_typeESD_SD_:

0000000000000000 <_ZNSt8__detail13__distance_fwIPKSt4pairIKNSt7__cxx1112basic_stringIcSt11char_traitsIcESaIcEEES7_EEENSt15iterator_traitsIT_E15difference_typeESD_SD_>:
   0:	55                   	push   %rbp
   1:	48 89 e5             	mov    %rsp,%rbp
   4:	48 83 ec 20          	sub    $0x20,%rsp
   8:	48 89 7d e8          	mov    %rdi,-0x18(%rbp)
   c:	48 89 75 e0          	mov    %rsi,-0x20(%rbp)
  10:	64 48 8b 04 25 28 00 	mov    %fs:0x28,%rax
  17:	00 00 
  19:	48 89 45 f8          	mov    %rax,-0x8(%rbp)
  1d:	31 c0                	xor    %eax,%eax
  1f:	48 8b 55 e0          	mov    -0x20(%rbp),%rdx
  23:	48 8b 45 e8          	mov    -0x18(%rbp),%rax
  27:	48 83 ec 08          	sub    $0x8,%rsp
  2b:	51                   	push   %rcx
  2c:	48 89 d6             	mov    %rdx,%rsi
  2f:	48 89 c7             	mov    %rax,%rdi
  32:	e8 00 00 00 00       	callq  37 <_ZNSt8__detail13__distance_fwIPKSt4pairIKNSt7__cxx1112basic_stringIcSt11char_traitsIcESaIcEEES7_EEENSt15iterator_traitsIT_E15difference_typeESD_SD_+0x37>
  37:	48 83 c4 10          	add    $0x10,%rsp
  3b:	48 8b 4d f8          	mov    -0x8(%rbp),%rcx
  3f:	64 48 33 0c 25 28 00 	xor    %fs:0x28,%rcx
  46:	00 00 
  48:	74 05                	je     4f <_ZNSt8__detail13__distance_fwIPKSt4pairIKNSt7__cxx1112basic_stringIcSt11char_traitsIcESaIcEEES7_EEENSt15iterator_traitsIT_E15difference_typeESD_SD_+0x4f>
  4a:	e8 00 00 00 00       	callq  4f <_ZNSt8__detail13__distance_fwIPKSt4pairIKNSt7__cxx1112basic_stringIcSt11char_traitsIcESaIcEEES7_EEENSt15iterator_traitsIT_E15difference_typeESD_SD_+0x4f>
  4f:	c9                   	leaveq 
  50:	c3                   	retq   

Disassembly of section .text._ZNSt10_HashtableINSt7__cxx1112basic_stringIcSt11char_traitsIcESaIcEEESt4pairIKS5_S5_ESaIS8_ENSt8__detail10_Select1stESt8equal_toIS5_ESt4hashIS5_ENSA_18_Mod_range_hashingENSA_20_Default_ranged_hashENSA_20_Prime_rehash_policyENSA_17_Hashtable_traitsILb1ELb0ELb1EEEE19_M_allocate_bucketsEm:

0000000000000000 <_ZNSt10_HashtableINSt7__cxx1112basic_stringIcSt11char_traitsIcESaIcEEESt4pairIKS5_S5_ESaIS8_ENSt8__detail10_Select1stESt8equal_toIS5_ESt4hashIS5_ENSA_18_Mod_range_hashingENSA_20_Default_ranged_hashENSA_20_Prime_rehash_policyENSA_17_Hashtable_traitsILb1ELb0ELb1EEEE19_M_allocate_bucketsEm>:
   0:	55                   	push   %rbp
   1:	48 89 e5             	mov    %rsp,%rbp
   4:	48 83 ec 10          	sub    $0x10,%rsp
   8:	48 89 7d f8          	mov    %rdi,-0x8(%rbp)
   c:	48 89 75 f0          	mov    %rsi,-0x10(%rbp)
  10:	48 83 7d f0 01       	cmpq   $0x1,-0x10(%rbp)
  15:	0f 94 c0             	sete   %al
  18:	0f b6 c0             	movzbl %al,%eax
  1b:	48 85 c0             	test   %rax,%rax
  1e:	74 16                	je     36 <_ZNSt10_HashtableINSt7__cxx1112basic_stringIcSt11char_traitsIcESaIcEEESt4pairIKS5_S5_ESaIS8_ENSt8__detail10_Select1stESt8equal_toIS5_ESt4hashIS5_ENSA_18_Mod_range_hashingENSA_20_Default_ranged_hashENSA_20_Prime_rehash_policyENSA_17_Hashtable_traitsILb1ELb0ELb1EEEE19_M_allocate_bucketsEm+0x36>
  20:	48 8b 45 f8          	mov    -0x8(%rbp),%rax
  24:	48 c7 40 30 00 00 00 	movq   $0x0,0x30(%rax)
  2b:	00 
  2c:	48 8b 45 f8          	mov    -0x8(%rbp),%rax
  30:	48 83 c0 30          	add    $0x30,%rax
  34:	eb 13                	jmp    49 <_ZNSt10_HashtableINSt7__cxx1112basic_stringIcSt11char_traitsIcESaIcEEESt4pairIKS5_S5_ESaIS8_ENSt8__detail10_Select1stESt8equal_toIS5_ESt4hashIS5_ENSA_18_Mod_range_hashingENSA_20_Default_ranged_hashENSA_20_Prime_rehash_policyENSA_17_Hashtable_traitsILb1ELb0ELb1EEEE19_M_allocate_bucketsEm+0x49>
  36:	48 8b 55 f0          	mov    -0x10(%rbp),%rdx
  3a:	48 8b 45 f8          	mov    -0x8(%rbp),%rax
  3e:	48 89 d6             	mov    %rdx,%rsi
  41:	48 89 c7             	mov    %rax,%rdi
  44:	e8 00 00 00 00       	callq  49 <_ZNSt10_HashtableINSt7__cxx1112basic_stringIcSt11char_traitsIcESaIcEEESt4pairIKS5_S5_ESaIS8_ENSt8__detail10_Select1stESt8equal_toIS5_ESt4hashIS5_ENSA_18_Mod_range_hashingENSA_20_Default_ranged_hashENSA_20_Prime_rehash_policyENSA_17_Hashtable_traitsILb1ELb0ELb1EEEE19_M_allocate_bucketsEm+0x49>
  49:	c9                   	leaveq 
  4a:	c3                   	retq   

Disassembly of section .text._ZNSt8__detail12_Insert_baseINSt7__cxx1112basic_stringIcSt11char_traitsIcESaIcEEESt4pairIKS6_S6_ESaIS9_ENS_10_Select1stESt8equal_toIS6_ESt4hashIS6_ENS_18_Mod_range_hashingENS_20_Default_ranged_hashENS_20_Prime_rehash_policyENS_17_Hashtable_traitsILb1ELb0ELb1EEEE6insertERKS9_:

0000000000000000 <_ZNSt8__detail12_Insert_baseINSt7__cxx1112basic_stringIcSt11char_traitsIcESaIcEEESt4pairIKS6_S6_ESaIS9_ENS_10_Select1stESt8equal_toIS6_ESt4hashIS6_ENS_18_Mod_range_hashingENS_20_Default_ranged_hashENS_20_Prime_rehash_policyENS_17_Hashtable_traitsILb1ELb0ELb1EEEE6insertERKS9_>:
   0:	55                   	push   %rbp
   1:	48 89 e5             	mov    %rsp,%rbp
   4:	53                   	push   %rbx
   5:	48 83 ec 38          	sub    $0x38,%rsp
   9:	48 89 7d c8          	mov    %rdi,-0x38(%rbp)
   d:	48 89 75 c0          	mov    %rsi,-0x40(%rbp)
  11:	64 48 8b 04 25 28 00 	mov    %fs:0x28,%rax
  18:	00 00 
  1a:	48 89 45 e8          	mov    %rax,-0x18(%rbp)
  1e:	31 c0                	xor    %eax,%eax
  20:	48 8b 45 c8          	mov    -0x38(%rbp),%rax
  24:	48 89 c7             	mov    %rax,%rdi
  27:	e8 00 00 00 00       	callq  2c <_ZNSt8__detail12_Insert_baseINSt7__cxx1112basic_stringIcSt11char_traitsIcESaIcEEESt4pairIKS6_S6_ESaIS9_ENS_10_Select1stESt8equal_toIS6_ESt4hashIS6_ENS_18_Mod_range_hashingENS_20_Default_ranged_hashENS_20_Prime_rehash_policyENS_17_Hashtable_traitsILb1ELb0ELb1EEEE6insertERKS9_+0x2c>
  2c:	48 89 45 e0          	mov    %rax,-0x20(%rbp)
  30:	48 8b 55 e0          	mov    -0x20(%rbp),%rdx
  34:	48 8d 45 d8          	lea    -0x28(%rbp),%rax
  38:	48 89 d6             	mov    %rdx,%rsi
  3b:	48 89 c7             	mov    %rax,%rdi
  3e:	e8 00 00 00 00       	callq  43 <_ZNSt8__detail12_Insert_baseINSt7__cxx1112basic_stringIcSt11char_traitsIcESaIcEEESt4pairIKS6_S6_ESaIS9_ENS_10_Select1stESt8equal_toIS6_ESt4hashIS6_ENS_18_Mod_range_hashingENS_20_Default_ranged_hashENS_20_Prime_rehash_policyENS_17_Hashtable_traitsILb1ELb0ELb1EEEE6insertERKS9_+0x43>
  43:	48 8d 55 d8          	lea    -0x28(%rbp),%rdx
  47:	48 8b 4d c0          	mov    -0x40(%rbp),%rcx
  4b:	48 8b 45 e0          	mov    -0x20(%rbp),%rax
  4f:	48 83 ec 08          	sub    $0x8,%rsp
  53:	53                   	push   %rbx
  54:	48 89 ce             	mov    %rcx,%rsi
  57:	48 89 c7             	mov    %rax,%rdi
  5a:	e8 00 00 00 00       	callq  5f <_ZNSt8__detail12_Insert_baseINSt7__cxx1112basic_stringIcSt11char_traitsIcESaIcEEESt4pairIKS6_S6_ESaIS9_ENS_10_Select1stESt8equal_toIS6_ESt4hashIS6_ENS_18_Mod_range_hashingENS_20_Default_ranged_hashENS_20_Prime_rehash_policyENS_17_Hashtable_traitsILb1ELb0ELb1EEEE6insertERKS9_+0x5f>
  5f:	48 83 c4 10          	add    $0x10,%rsp
  63:	48 8b 5d e8          	mov    -0x18(%rbp),%rbx
  67:	64 48 33 1c 25 28 00 	xor    %fs:0x28,%rbx
  6e:	00 00 
  70:	74 05                	je     77 <_ZNSt8__detail12_Insert_baseINSt7__cxx1112basic_stringIcSt11char_traitsIcESaIcEEESt4pairIKS6_S6_ESaIS9_ENS_10_Select1stESt8equal_toIS6_ESt4hashIS6_ENS_18_Mod_range_hashingENS_20_Default_ranged_hashENS_20_Prime_rehash_policyENS_17_Hashtable_traitsILb1ELb0ELb1EEEE6insertERKS9_+0x77>
  72:	e8 00 00 00 00       	callq  77 <_ZNSt8__detail12_Insert_baseINSt7__cxx1112basic_stringIcSt11char_traitsIcESaIcEEESt4pairIKS6_S6_ESaIS9_ENS_10_Select1stESt8equal_toIS6_ESt4hashIS6_ENS_18_Mod_range_hashingENS_20_Default_ranged_hashENS_20_Prime_rehash_policyENS_17_Hashtable_traitsILb1ELb0ELb1EEEE6insertERKS9_+0x77>
  77:	48 8b 5d f8          	mov    -0x8(%rbp),%rbx
  7b:	c9                   	leaveq 
  7c:	c3                   	retq   

Disassembly of section .text._ZNKSt8__detail10_Hash_nodeISt4pairIKNSt7__cxx1112basic_stringIcSt11char_traitsIcESaIcEEES7_ELb1EE7_M_nextEv:

0000000000000000 <_ZNKSt8__detail10_Hash_nodeISt4pairIKNSt7__cxx1112basic_stringIcSt11char_traitsIcESaIcEEES7_ELb1EE7_M_nextEv>:
   0:	55                   	push   %rbp
   1:	48 89 e5             	mov    %rsp,%rbp
   4:	48 89 7d f8          	mov    %rdi,-0x8(%rbp)
   8:	48 8b 45 f8          	mov    -0x8(%rbp),%rax
   c:	48 8b 00             	mov    (%rax),%rax
   f:	5d                   	pop    %rbp
  10:	c3                   	retq   

Disassembly of section .text._ZNSt8__detail16_Hashtable_allocISaINS_10_Hash_nodeISt4pairIKNSt7__cxx1112basic_stringIcSt11char_traitsIcESaIcEEES8_ELb1EEEEE18_M_deallocate_nodeEPSB_:

0000000000000000 <_ZNSt8__detail16_Hashtable_allocISaINS_10_Hash_nodeISt4pairIKNSt7__cxx1112basic_stringIcSt11char_traitsIcESaIcEEES8_ELb1EEEEE18_M_deallocate_nodeEPSB_>:
   0:	55                   	push   %rbp
   1:	48 89 e5             	mov    %rsp,%rbp
   4:	53                   	push   %rbx
   5:	48 83 ec 38          	sub    $0x38,%rsp
   9:	48 89 7d c8          	mov    %rdi,-0x38(%rbp)
   d:	48 89 75 c0          	mov    %rsi,-0x40(%rbp)
  11:	64 48 8b 04 25 28 00 	mov    %fs:0x28,%rax
  18:	00 00 
  1a:	48 89 45 e8          	mov    %rax,-0x18(%rbp)
  1e:	31 c0                	xor    %eax,%eax
  20:	48 8b 45 c0          	mov    -0x40(%rbp),%rax
  24:	48 89 c7             	mov    %rax,%rdi
  27:	e8 00 00 00 00       	callq  2c <_ZNSt8__detail16_Hashtable_allocISaINS_10_Hash_nodeISt4pairIKNSt7__cxx1112basic_stringIcSt11char_traitsIcESaIcEEES8_ELb1EEEEE18_M_deallocate_nodeEPSB_+0x2c>
  2c:	48 89 45 e0          	mov    %rax,-0x20(%rbp)
  30:	48 8b 45 c8          	mov    -0x38(%rbp),%rax
  34:	48 89 c7             	mov    %rax,%rdi
  37:	e8 00 00 00 00       	callq  3c <_ZNSt8__detail16_Hashtable_allocISaINS_10_Hash_nodeISt4pairIKNSt7__cxx1112basic_stringIcSt11char_traitsIcESaIcEEES8_ELb1EEEEE18_M_deallocate_nodeEPSB_+0x3c>
  3c:	48 89 c2             	mov    %rax,%rdx
  3f:	48 8d 45 df          	lea    -0x21(%rbp),%rax
  43:	48 89 d6             	mov    %rdx,%rsi
  46:	48 89 c7             	mov    %rax,%rdi
  49:	e8 00 00 00 00       	callq  4e <_ZNSt8__detail16_Hashtable_allocISaINS_10_Hash_nodeISt4pairIKNSt7__cxx1112basic_stringIcSt11char_traitsIcESaIcEEES8_ELb1EEEEE18_M_deallocate_nodeEPSB_+0x4e>
  4e:	48 8b 45 c0          	mov    -0x40(%rbp),%rax
  52:	48 89 c7             	mov    %rax,%rdi
  55:	e8 00 00 00 00       	callq  5a <_ZNSt8__detail16_Hashtable_allocISaINS_10_Hash_nodeISt4pairIKNSt7__cxx1112basic_stringIcSt11char_traitsIcESaIcEEES8_ELb1EEEEE18_M_deallocate_nodeEPSB_+0x5a>
  5a:	48 89 c2             	mov    %rax,%rdx
  5d:	48 8d 45 df          	lea    -0x21(%rbp),%rax
  61:	48 89 d6             	mov    %rdx,%rsi
  64:	48 89 c7             	mov    %rax,%rdi
  67:	e8 00 00 00 00       	callq  6c <_ZNSt8__detail16_Hashtable_allocISaINS_10_Hash_nodeISt4pairIKNSt7__cxx1112basic_stringIcSt11char_traitsIcESaIcEEES8_ELb1EEEEE18_M_deallocate_nodeEPSB_+0x6c>
  6c:	48 8b 45 c8          	mov    -0x38(%rbp),%rax
  70:	48 89 c7             	mov    %rax,%rdi
  73:	e8 00 00 00 00       	callq  78 <_ZNSt8__detail16_Hashtable_allocISaINS_10_Hash_nodeISt4pairIKNSt7__cxx1112basic_stringIcSt11char_traitsIcESaIcEEES8_ELb1EEEEE18_M_deallocate_nodeEPSB_+0x78>
  78:	48 89 c1             	mov    %rax,%rcx
  7b:	48 8b 45 e0          	mov    -0x20(%rbp),%rax
  7f:	ba 01 00 00 00       	mov    $0x1,%edx
  84:	48 89 c6             	mov    %rax,%rsi
  87:	48 89 cf             	mov    %rcx,%rdi
  8a:	e8 00 00 00 00       	callq  8f <_ZNSt8__detail16_Hashtable_allocISaINS_10_Hash_nodeISt4pairIKNSt7__cxx1112basic_stringIcSt11char_traitsIcESaIcEEES8_ELb1EEEEE18_M_deallocate_nodeEPSB_+0x8f>
  8f:	48 8d 45 df          	lea    -0x21(%rbp),%rax
  93:	48 89 c7             	mov    %rax,%rdi
  96:	e8 00 00 00 00       	callq  9b <_ZNSt8__detail16_Hashtable_allocISaINS_10_Hash_nodeISt4pairIKNSt7__cxx1112basic_stringIcSt11char_traitsIcESaIcEEES8_ELb1EEEEE18_M_deallocate_nodeEPSB_+0x9b>
  9b:	90                   	nop
  9c:	48 8b 45 e8          	mov    -0x18(%rbp),%rax
  a0:	64 48 33 04 25 28 00 	xor    %fs:0x28,%rax
  a7:	00 00 
  a9:	74 21                	je     cc <_ZNSt8__detail16_Hashtable_allocISaINS_10_Hash_nodeISt4pairIKNSt7__cxx1112basic_stringIcSt11char_traitsIcESaIcEEES8_ELb1EEEEE18_M_deallocate_nodeEPSB_+0xcc>
  ab:	eb 1a                	jmp    c7 <_ZNSt8__detail16_Hashtable_allocISaINS_10_Hash_nodeISt4pairIKNSt7__cxx1112basic_stringIcSt11char_traitsIcESaIcEEES8_ELb1EEEEE18_M_deallocate_nodeEPSB_+0xc7>
  ad:	48 89 c3             	mov    %rax,%rbx
  b0:	48 8d 45 df          	lea    -0x21(%rbp),%rax
  b4:	48 89 c7             	mov    %rax,%rdi
  b7:	e8 00 00 00 00       	callq  bc <_ZNSt8__detail16_Hashtable_allocISaINS_10_Hash_nodeISt4pairIKNSt7__cxx1112basic_stringIcSt11char_traitsIcESaIcEEES8_ELb1EEEEE18_M_deallocate_nodeEPSB_+0xbc>
  bc:	48 89 d8             	mov    %rbx,%rax
  bf:	48 89 c7             	mov    %rax,%rdi
  c2:	e8 00 00 00 00       	callq  c7 <_ZNSt8__detail16_Hashtable_allocISaINS_10_Hash_nodeISt4pairIKNSt7__cxx1112basic_stringIcSt11char_traitsIcESaIcEEES8_ELb1EEEEE18_M_deallocate_nodeEPSB_+0xc7>
  c7:	e8 00 00 00 00       	callq  cc <_ZNSt8__detail16_Hashtable_allocISaINS_10_Hash_nodeISt4pairIKNSt7__cxx1112basic_stringIcSt11char_traitsIcESaIcEEES8_ELb1EEEEE18_M_deallocate_nodeEPSB_+0xcc>
  cc:	48 83 c4 38          	add    $0x38,%rsp
  d0:	5b                   	pop    %rbx
  d1:	5d                   	pop    %rbp
  d2:	c3                   	retq   

Disassembly of section .text._ZNKSt10_HashtableINSt7__cxx1112basic_stringIcSt11char_traitsIcESaIcEEESt4pairIKS5_S5_ESaIS8_ENSt8__detail10_Select1stESt8equal_toIS5_ESt4hashIS5_ENSA_18_Mod_range_hashingENSA_20_Default_ranged_hashENSA_20_Prime_rehash_policyENSA_17_Hashtable_traitsILb1ELb0ELb1EEEE21_M_uses_single_bucketEPPNSA_15_Hash_node_baseE:

0000000000000000 <_ZNKSt10_HashtableINSt7__cxx1112basic_stringIcSt11char_traitsIcESaIcEEESt4pairIKS5_S5_ESaIS8_ENSt8__detail10_Select1stESt8equal_toIS5_ESt4hashIS5_ENSA_18_Mod_range_hashingENSA_20_Default_ranged_hashENSA_20_Prime_rehash_policyENSA_17_Hashtable_traitsILb1ELb0ELb1EEEE21_M_uses_single_bucketEPPNSA_15_Hash_node_baseE>:
   0:	55                   	push   %rbp
   1:	48 89 e5             	mov    %rsp,%rbp
   4:	48 89 7d f8          	mov    %rdi,-0x8(%rbp)
   8:	48 89 75 f0          	mov    %rsi,-0x10(%rbp)
   c:	48 8b 45 f8          	mov    -0x8(%rbp),%rax
  10:	48 83 c0 30          	add    $0x30,%rax
  14:	48 39 45 f0          	cmp    %rax,-0x10(%rbp)
  18:	0f 94 c0             	sete   %al
  1b:	0f b6 c0             	movzbl %al,%eax
  1e:	48 85 c0             	test   %rax,%rax
  21:	0f 95 c0             	setne  %al
  24:	5d                   	pop    %rbp
  25:	c3                   	retq   

Disassembly of section .text._ZNSt8__detail16_Hashtable_allocISaINS_10_Hash_nodeISt4pairIKNSt7__cxx1112basic_stringIcSt11char_traitsIcESaIcEEES8_ELb1EEEEE21_M_deallocate_bucketsEPPNS_15_Hash_node_baseEm:

0000000000000000 <_ZNSt8__detail16_Hashtable_allocISaINS_10_Hash_nodeISt4pairIKNSt7__cxx1112basic_stringIcSt11char_traitsIcESaIcEEES8_ELb1EEEEE21_M_deallocate_bucketsEPPNS_15_Hash_node_baseEm>:
   0:	55                   	push   %rbp
   1:	48 89 e5             	mov    %rsp,%rbp
   4:	53                   	push   %rbx
   5:	48 83 ec 48          	sub    $0x48,%rsp
   9:	48 89 7d c8          	mov    %rdi,-0x38(%rbp)
   d:	48 89 75 c0          	mov    %rsi,-0x40(%rbp)
  11:	48 89 55 b8          	mov    %rdx,-0x48(%rbp)
  15:	64 48 8b 04 25 28 00 	mov    %fs:0x28,%rax
  1c:	00 00 
  1e:	48 89 45 e8          	mov    %rax,-0x18(%rbp)
  22:	31 c0                	xor    %eax,%eax
  24:	48 8b 45 c0          	mov    -0x40(%rbp),%rax
  28:	48 89 c7             	mov    %rax,%rdi
  2b:	e8 00 00 00 00       	callq  30 <_ZNSt8__detail16_Hashtable_allocISaINS_10_Hash_nodeISt4pairIKNSt7__cxx1112basic_stringIcSt11char_traitsIcESaIcEEES8_ELb1EEEEE21_M_deallocate_bucketsEPPNS_15_Hash_node_baseEm+0x30>
  30:	48 89 45 e0          	mov    %rax,-0x20(%rbp)
  34:	48 8b 45 c8          	mov    -0x38(%rbp),%rax
  38:	48 89 c7             	mov    %rax,%rdi
  3b:	e8 00 00 00 00       	callq  40 <_ZNSt8__detail16_Hashtable_allocISaINS_10_Hash_nodeISt4pairIKNSt7__cxx1112basic_stringIcSt11char_traitsIcESaIcEEES8_ELb1EEEEE21_M_deallocate_bucketsEPPNS_15_Hash_node_baseEm+0x40>
  40:	48 89 c2             	mov    %rax,%rdx
  43:	48 8d 45 df          	lea    -0x21(%rbp),%rax
  47:	48 89 d6             	mov    %rdx,%rsi
  4a:	48 89 c7             	mov    %rax,%rdi
  4d:	e8 00 00 00 00       	callq  52 <_ZNSt8__detail16_Hashtable_allocISaINS_10_Hash_nodeISt4pairIKNSt7__cxx1112basic_stringIcSt11char_traitsIcESaIcEEES8_ELb1EEEEE21_M_deallocate_bucketsEPPNS_15_Hash_node_baseEm+0x52>
  52:	48 8b 55 b8          	mov    -0x48(%rbp),%rdx
  56:	48 8b 4d e0          	mov    -0x20(%rbp),%rcx
  5a:	48 8d 45 df          	lea    -0x21(%rbp),%rax
  5e:	48 89 ce             	mov    %rcx,%rsi
  61:	48 89 c7             	mov    %rax,%rdi
  64:	e8 00 00 00 00       	callq  69 <_ZNSt8__detail16_Hashtable_allocISaINS_10_Hash_nodeISt4pairIKNSt7__cxx1112basic_stringIcSt11char_traitsIcESaIcEEES8_ELb1EEEEE21_M_deallocate_bucketsEPPNS_15_Hash_node_baseEm+0x69>
  69:	48 8d 45 df          	lea    -0x21(%rbp),%rax
  6d:	48 89 c7             	mov    %rax,%rdi
  70:	e8 00 00 00 00       	callq  75 <_ZNSt8__detail16_Hashtable_allocISaINS_10_Hash_nodeISt4pairIKNSt7__cxx1112basic_stringIcSt11char_traitsIcESaIcEEES8_ELb1EEEEE21_M_deallocate_bucketsEPPNS_15_Hash_node_baseEm+0x75>
  75:	90                   	nop
  76:	48 8b 45 e8          	mov    -0x18(%rbp),%rax
  7a:	64 48 33 04 25 28 00 	xor    %fs:0x28,%rax
  81:	00 00 
  83:	74 21                	je     a6 <_ZNSt8__detail16_Hashtable_allocISaINS_10_Hash_nodeISt4pairIKNSt7__cxx1112basic_stringIcSt11char_traitsIcESaIcEEES8_ELb1EEEEE21_M_deallocate_bucketsEPPNS_15_Hash_node_baseEm+0xa6>
  85:	eb 1a                	jmp    a1 <_ZNSt8__detail16_Hashtable_allocISaINS_10_Hash_nodeISt4pairIKNSt7__cxx1112basic_stringIcSt11char_traitsIcESaIcEEES8_ELb1EEEEE21_M_deallocate_bucketsEPPNS_15_Hash_node_baseEm+0xa1>
  87:	48 89 c3             	mov    %rax,%rbx
  8a:	48 8d 45 df          	lea    -0x21(%rbp),%rax
  8e:	48 89 c7             	mov    %rax,%rdi
  91:	e8 00 00 00 00       	callq  96 <_ZNSt8__detail16_Hashtable_allocISaINS_10_Hash_nodeISt4pairIKNSt7__cxx1112basic_stringIcSt11char_traitsIcESaIcEEES8_ELb1EEEEE21_M_deallocate_bucketsEPPNS_15_Hash_node_baseEm+0x96>
  96:	48 89 d8             	mov    %rbx,%rax
  99:	48 89 c7             	mov    %rax,%rdi
  9c:	e8 00 00 00 00       	callq  a1 <_ZNSt8__detail16_Hashtable_allocISaINS_10_Hash_nodeISt4pairIKNSt7__cxx1112basic_stringIcSt11char_traitsIcESaIcEEES8_ELb1EEEEE21_M_deallocate_bucketsEPPNS_15_Hash_node_baseEm+0xa1>
  a1:	e8 00 00 00 00       	callq  a6 <_ZNSt8__detail16_Hashtable_allocISaINS_10_Hash_nodeISt4pairIKNSt7__cxx1112basic_stringIcSt11char_traitsIcESaIcEEES8_ELb1EEEEE21_M_deallocate_bucketsEPPNS_15_Hash_node_baseEm+0xa6>
  a6:	48 83 c4 48          	add    $0x48,%rsp
  aa:	5b                   	pop    %rbx
  ab:	5d                   	pop    %rbp
  ac:	c3                   	retq   

Disassembly of section .text._ZNKSt8__detail15_Hash_code_baseINSt7__cxx1112basic_stringIcSt11char_traitsIcESaIcEEESt4pairIKS6_S6_ENS_10_Select1stESt4hashIS6_ENS_18_Mod_range_hashingENS_20_Default_ranged_hashELb1EE5_M_h1Ev:

0000000000000000 <_ZNKSt8__detail15_Hash_code_baseINSt7__cxx1112basic_stringIcSt11char_traitsIcESaIcEEESt4pairIKS6_S6_ENS_10_Select1stESt4hashIS6_ENS_18_Mod_range_hashingENS_20_Default_ranged_hashELb1EE5_M_h1Ev>:
   0:	55                   	push   %rbp
   1:	48 89 e5             	mov    %rsp,%rbp
   4:	48 83 ec 10          	sub    $0x10,%rsp
   8:	48 89 7d f8          	mov    %rdi,-0x8(%rbp)
   c:	48 8b 45 f8          	mov    -0x8(%rbp),%rax
  10:	48 89 c7             	mov    %rax,%rdi
  13:	e8 00 00 00 00       	callq  18 <_ZNKSt8__detail15_Hash_code_baseINSt7__cxx1112basic_stringIcSt11char_traitsIcESaIcEEESt4pairIKS6_S6_ENS_10_Select1stESt4hashIS6_ENS_18_Mod_range_hashingENS_20_Default_ranged_hashELb1EE5_M_h1Ev+0x18>
  18:	c9                   	leaveq 
  19:	c3                   	retq   

Disassembly of section .text._ZNKSt8__detail15_Hash_code_baseINSt7__cxx1112basic_stringIcSt11char_traitsIcESaIcEEESt4pairIKS6_S6_ENS_10_Select1stESt4hashIS6_ENS_18_Mod_range_hashingENS_20_Default_ranged_hashELb1EE15_M_bucket_indexERS8_mm:

0000000000000000 <_ZNKSt8__detail15_Hash_code_baseINSt7__cxx1112basic_stringIcSt11char_traitsIcESaIcEEESt4pairIKS6_S6_ENS_10_Select1stESt4hashIS6_ENS_18_Mod_range_hashingENS_20_Default_ranged_hashELb1EE15_M_bucket_indexERS8_mm>:
   0:	55                   	push   %rbp
   1:	48 89 e5             	mov    %rsp,%rbp
   4:	48 83 ec 20          	sub    $0x20,%rsp
   8:	48 89 7d f8          	mov    %rdi,-0x8(%rbp)
   c:	48 89 75 f0          	mov    %rsi,-0x10(%rbp)
  10:	48 89 55 e8          	mov    %rdx,-0x18(%rbp)
  14:	48 89 4d e0          	mov    %rcx,-0x20(%rbp)
  18:	48 8b 45 f8          	mov    -0x8(%rbp),%rax
  1c:	48 89 c7             	mov    %rax,%rdi
  1f:	e8 00 00 00 00       	callq  24 <_ZNKSt8__detail15_Hash_code_baseINSt7__cxx1112basic_stringIcSt11char_traitsIcESaIcEEESt4pairIKS6_S6_ENS_10_Select1stESt4hashIS6_ENS_18_Mod_range_hashingENS_20_Default_ranged_hashELb1EE15_M_bucket_indexERS8_mm+0x24>
  24:	48 89 c1             	mov    %rax,%rcx
  27:	48 8b 55 e0          	mov    -0x20(%rbp),%rdx
  2b:	48 8b 45 e8          	mov    -0x18(%rbp),%rax
  2f:	48 89 c6             	mov    %rax,%rsi
  32:	48 89 cf             	mov    %rcx,%rdi
  35:	e8 00 00 00 00       	callq  3a <_ZNKSt8__detail15_Hash_code_baseINSt7__cxx1112basic_stringIcSt11char_traitsIcESaIcEEESt4pairIKS6_S6_ENS_10_Select1stESt4hashIS6_ENS_18_Mod_range_hashingENS_20_Default_ranged_hashELb1EE15_M_bucket_indexERS8_mm+0x3a>
  3a:	c9                   	leaveq 
  3b:	c3                   	retq   

Disassembly of section .text._ZNKSt10_HashtableINSt7__cxx1112basic_stringIcSt11char_traitsIcESaIcEEESt4pairIKS5_S5_ESaIS8_ENSt8__detail10_Select1stESt8equal_toIS5_ESt4hashIS5_ENSA_18_Mod_range_hashingENSA_20_Default_ranged_hashENSA_20_Prime_rehash_policyENSA_17_Hashtable_traitsILb1ELb0ELb1EEEE19_M_find_before_nodeEmRS7_m:

0000000000000000 <_ZNKSt10_HashtableINSt7__cxx1112basic_stringIcSt11char_traitsIcESaIcEEESt4pairIKS5_S5_ESaIS8_ENSt8__detail10_Select1stESt8equal_toIS5_ESt4hashIS5_ENSA_18_Mod_range_hashingENSA_20_Default_ranged_hashENSA_20_Prime_rehash_policyENSA_17_Hashtable_traitsILb1ELb0ELb1EEEE19_M_find_before_nodeEmRS7_m>:
   0:	55                   	push   %rbp
   1:	48 89 e5             	mov    %rsp,%rbp
   4:	48 83 ec 30          	sub    $0x30,%rsp
   8:	48 89 7d e8          	mov    %rdi,-0x18(%rbp)
   c:	48 89 75 e0          	mov    %rsi,-0x20(%rbp)
  10:	48 89 55 d8          	mov    %rdx,-0x28(%rbp)
  14:	48 89 4d d0          	mov    %rcx,-0x30(%rbp)
  18:	48 8b 45 e8          	mov    -0x18(%rbp),%rax
  1c:	48 8b 00             	mov    (%rax),%rax
  1f:	48 8b 55 e0          	mov    -0x20(%rbp),%rdx
  23:	48 c1 e2 03          	shl    $0x3,%rdx
  27:	48 01 d0             	add    %rdx,%rax
  2a:	48 8b 00             	mov    (%rax),%rax
  2d:	48 89 45 f0          	mov    %rax,-0x10(%rbp)
  31:	48 83 7d f0 00       	cmpq   $0x0,-0x10(%rbp)
  36:	75 0a                	jne    42 <_ZNKSt10_HashtableINSt7__cxx1112basic_stringIcSt11char_traitsIcESaIcEEESt4pairIKS5_S5_ESaIS8_ENSt8__detail10_Select1stESt8equal_toIS5_ESt4hashIS5_ENSA_18_Mod_range_hashingENSA_20_Default_ranged_hashENSA_20_Prime_rehash_policyENSA_17_Hashtable_traitsILb1ELb0ELb1EEEE19_M_find_before_nodeEmRS7_m+0x42>
  38:	b8 00 00 00 00       	mov    $0x0,%eax
  3d:	e9 8d 00 00 00       	jmpq   cf <_ZNKSt10_HashtableINSt7__cxx1112basic_stringIcSt11char_traitsIcESaIcEEESt4pairIKS5_S5_ESaIS8_ENSt8__detail10_Select1stESt8equal_toIS5_ESt4hashIS5_ENSA_18_Mod_range_hashingENSA_20_Default_ranged_hashENSA_20_Prime_rehash_policyENSA_17_Hashtable_traitsILb1ELb0ELb1EEEE19_M_find_before_nodeEmRS7_m+0xcf>
  42:	48 8b 45 f0          	mov    -0x10(%rbp),%rax
  46:	48 8b 00             	mov    (%rax),%rax
  49:	48 89 45 f8          	mov    %rax,-0x8(%rbp)
  4d:	48 8b 4d f8          	mov    -0x8(%rbp),%rcx
  51:	48 8b 55 d0          	mov    -0x30(%rbp),%rdx
  55:	48 8b 75 d8          	mov    -0x28(%rbp),%rsi
  59:	48 8b 45 e8          	mov    -0x18(%rbp),%rax
  5d:	48 89 c7             	mov    %rax,%rdi
  60:	e8 00 00 00 00       	callq  65 <_ZNKSt10_HashtableINSt7__cxx1112basic_stringIcSt11char_traitsIcESaIcEEESt4pairIKS5_S5_ESaIS8_ENSt8__detail10_Select1stESt8equal_toIS5_ESt4hashIS5_ENSA_18_Mod_range_hashingENSA_20_Default_ranged_hashENSA_20_Prime_rehash_policyENSA_17_Hashtable_traitsILb1ELb0ELb1EEEE19_M_find_before_nodeEmRS7_m+0x65>
  65:	84 c0                	test   %al,%al
  67:	74 06                	je     6f <_ZNKSt10_HashtableINSt7__cxx1112basic_stringIcSt11char_traitsIcESaIcEEESt4pairIKS5_S5_ESaIS8_ENSt8__detail10_Select1stESt8equal_toIS5_ESt4hashIS5_ENSA_18_Mod_range_hashingENSA_20_Default_ranged_hashENSA_20_Prime_rehash_policyENSA_17_Hashtable_traitsILb1ELb0ELb1EEEE19_M_find_before_nodeEmRS7_m+0x6f>
  69:	48 8b 45 f0          	mov    -0x10(%rbp),%rax
  6d:	eb 60                	jmp    cf <_ZNKSt10_HashtableINSt7__cxx1112basic_stringIcSt11char_traitsIcESaIcEEESt4pairIKS5_S5_ESaIS8_ENSt8__detail10_Select1stESt8equal_toIS5_ESt4hashIS5_ENSA_18_Mod_range_hashingENSA_20_Default_ranged_hashENSA_20_Prime_rehash_policyENSA_17_Hashtable_traitsILb1ELb0ELb1EEEE19_M_find_before_nodeEmRS7_m+0xcf>
  6f:	48 8b 45 f8          	mov    -0x8(%rbp),%rax
  73:	48 8b 00             	mov    (%rax),%rax
  76:	48 85 c0             	test   %rax,%rax
  79:	74 24                	je     9f <_ZNKSt10_HashtableINSt7__cxx1112basic_stringIcSt11char_traitsIcESaIcEEESt4pairIKS5_S5_ESaIS8_ENSt8__detail10_Select1stESt8equal_toIS5_ESt4hashIS5_ENSA_18_Mod_range_hashingENSA_20_Default_ranged_hashENSA_20_Prime_rehash_policyENSA_17_Hashtable_traitsILb1ELb0ELb1EEEE19_M_find_before_nodeEmRS7_m+0x9f>
  7b:	48 8b 45 f8          	mov    -0x8(%rbp),%rax
  7f:	48 89 c7             	mov    %rax,%rdi
  82:	e8 00 00 00 00       	callq  87 <_ZNKSt10_HashtableINSt7__cxx1112basic_stringIcSt11char_traitsIcESaIcEEESt4pairIKS5_S5_ESaIS8_ENSt8__detail10_Select1stESt8equal_toIS5_ESt4hashIS5_ENSA_18_Mod_range_hashingENSA_20_Default_ranged_hashENSA_20_Prime_rehash_policyENSA_17_Hashtable_traitsILb1ELb0ELb1EEEE19_M_find_before_nodeEmRS7_m+0x87>
  87:	48 89 c2             	mov    %rax,%rdx
  8a:	48 8b 45 e8          	mov    -0x18(%rbp),%rax
  8e:	48 89 d6             	mov    %rdx,%rsi
  91:	48 89 c7             	mov    %rax,%rdi
  94:	e8 00 00 00 00       	callq  99 <_ZNKSt10_HashtableINSt7__cxx1112basic_stringIcSt11char_traitsIcESaIcEEESt4pairIKS5_S5_ESaIS8_ENSt8__detail10_Select1stESt8equal_toIS5_ESt4hashIS5_ENSA_18_Mod_range_hashingENSA_20_Default_ranged_hashENSA_20_Prime_rehash_policyENSA_17_Hashtable_traitsILb1ELb0ELb1EEEE19_M_find_before_nodeEmRS7_m+0x99>
  99:	48 39 45 e0          	cmp    %rax,-0x20(%rbp)
  9d:	74 07                	je     a6 <_ZNKSt10_HashtableINSt7__cxx1112basic_stringIcSt11char_traitsIcESaIcEEESt4pairIKS5_S5_ESaIS8_ENSt8__detail10_Select1stESt8equal_toIS5_ESt4hashIS5_ENSA_18_Mod_range_hashingENSA_20_Default_ranged_hashENSA_20_Prime_rehash_policyENSA_17_Hashtable_traitsILb1ELb0ELb1EEEE19_M_find_before_nodeEmRS7_m+0xa6>
  9f:	b8 01 00 00 00       	mov    $0x1,%eax
  a4:	eb 05                	jmp    ab <_ZNKSt10_HashtableINSt7__cxx1112basic_stringIcSt11char_traitsIcESaIcEEESt4pairIKS5_S5_ESaIS8_ENSt8__detail10_Select1stESt8equal_toIS5_ESt4hashIS5_ENSA_18_Mod_range_hashingENSA_20_Default_ranged_hashENSA_20_Prime_rehash_policyENSA_17_Hashtable_traitsILb1ELb0ELb1EEEE19_M_find_before_nodeEmRS7_m+0xab>
  a6:	b8 00 00 00 00       	mov    $0x0,%eax
  ab:	84 c0                	test   %al,%al
  ad:	75 1a                	jne    c9 <_ZNKSt10_HashtableINSt7__cxx1112basic_stringIcSt11char_traitsIcESaIcEEESt4pairIKS5_S5_ESaIS8_ENSt8__detail10_Select1stESt8equal_toIS5_ESt4hashIS5_ENSA_18_Mod_range_hashingENSA_20_Default_ranged_hashENSA_20_Prime_rehash_policyENSA_17_Hashtable_traitsILb1ELb0ELb1EEEE19_M_find_before_nodeEmRS7_m+0xc9>
  af:	48 8b 45 f8          	mov    -0x8(%rbp),%rax
  b3:	48 89 45 f0          	mov    %rax,-0x10(%rbp)
  b7:	48 8b 45 f8          	mov    -0x8(%rbp),%rax
  bb:	48 89 c7             	mov    %rax,%rdi
  be:	e8 00 00 00 00       	callq  c3 <_ZNKSt10_HashtableINSt7__cxx1112basic_stringIcSt11char_traitsIcESaIcEEESt4pairIKS5_S5_ESaIS8_ENSt8__detail10_Select1stESt8equal_toIS5_ESt4hashIS5_ENSA_18_Mod_range_hashingENSA_20_Default_ranged_hashENSA_20_Prime_rehash_policyENSA_17_Hashtable_traitsILb1ELb0ELb1EEEE19_M_find_before_nodeEmRS7_m+0xc3>
  c3:	48 89 45 f8          	mov    %rax,-0x8(%rbp)
  c7:	eb 84                	jmp    4d <_ZNKSt10_HashtableINSt7__cxx1112basic_stringIcSt11char_traitsIcESaIcEEESt4pairIKS5_S5_ESaIS8_ENSt8__detail10_Select1stESt8equal_toIS5_ESt4hashIS5_ENSA_18_Mod_range_hashingENSA_20_Default_ranged_hashENSA_20_Prime_rehash_policyENSA_17_Hashtable_traitsILb1ELb0ELb1EEEE19_M_find_before_nodeEmRS7_m+0x4d>
  c9:	90                   	nop
  ca:	b8 00 00 00 00       	mov    $0x0,%eax
  cf:	c9                   	leaveq 
  d0:	c3                   	retq   

Disassembly of section .text._ZNSt8__detail19_Node_iterator_baseISt4pairIKNSt7__cxx1112basic_stringIcSt11char_traitsIcESaIcEEES7_ELb1EEC2EPNS_10_Hash_nodeIS9_Lb1EEE:

0000000000000000 <_ZNSt8__detail19_Node_iterator_baseISt4pairIKNSt7__cxx1112basic_stringIcSt11char_traitsIcESaIcEEES7_ELb1EEC1EPNS_10_Hash_nodeIS9_Lb1EEE>:
   0:	55                   	push   %rbp
   1:	48 89 e5             	mov    %rsp,%rbp
   4:	48 89 7d f8          	mov    %rdi,-0x8(%rbp)
   8:	48 89 75 f0          	mov    %rsi,-0x10(%rbp)
   c:	48 8b 45 f8          	mov    -0x8(%rbp),%rax
  10:	48 8b 55 f0          	mov    -0x10(%rbp),%rdx
  14:	48 89 10             	mov    %rdx,(%rax)
  17:	90                   	nop
  18:	5d                   	pop    %rbp
  19:	c3                   	retq   

Disassembly of section .text._ZNSt8__detail16_Hashtable_allocISaINS_10_Hash_nodeISt4pairIKNSt7__cxx1112basic_stringIcSt11char_traitsIcESaIcEEES8_ELb1EEEEE17_M_node_allocatorEv:

0000000000000000 <_ZNSt8__detail16_Hashtable_allocISaINS_10_Hash_nodeISt4pairIKNSt7__cxx1112basic_stringIcSt11char_traitsIcESaIcEEES8_ELb1EEEEE17_M_node_allocatorEv>:
   0:	55                   	push   %rbp
   1:	48 89 e5             	mov    %rsp,%rbp
   4:	48 83 ec 10          	sub    $0x10,%rsp
   8:	48 89 7d f8          	mov    %rdi,-0x8(%rbp)
   c:	48 8b 45 f8          	mov    -0x8(%rbp),%rax
  10:	48 89 c7             	mov    %rax,%rdi
  13:	e8 00 00 00 00       	callq  18 <_ZNSt8__detail16_Hashtable_allocISaINS_10_Hash_nodeISt4pairIKNSt7__cxx1112basic_stringIcSt11char_traitsIcESaIcEEES8_ELb1EEEEE17_M_node_allocatorEv+0x18>
  18:	c9                   	leaveq 
  19:	c3                   	retq   

Disassembly of section .text._ZNSt16allocator_traitsISaINSt8__detail10_Hash_nodeISt4pairIKNSt7__cxx1112basic_stringIcSt11char_traitsIcESaIcEEES8_ELb1EEEEE8allocateERSC_m:

0000000000000000 <_ZNSt16allocator_traitsISaINSt8__detail10_Hash_nodeISt4pairIKNSt7__cxx1112basic_stringIcSt11char_traitsIcESaIcEEES8_ELb1EEEEE8allocateERSC_m>:
   0:	55                   	push   %rbp
   1:	48 89 e5             	mov    %rsp,%rbp
   4:	48 83 ec 10          	sub    $0x10,%rsp
   8:	48 89 7d f8          	mov    %rdi,-0x8(%rbp)
   c:	48 89 75 f0          	mov    %rsi,-0x10(%rbp)
  10:	48 8b 4d f0          	mov    -0x10(%rbp),%rcx
  14:	48 8b 45 f8          	mov    -0x8(%rbp),%rax
  18:	ba 00 00 00 00       	mov    $0x0,%edx
  1d:	48 89 ce             	mov    %rcx,%rsi
  20:	48 89 c7             	mov    %rax,%rdi
  23:	e8 00 00 00 00       	callq  28 <_ZNSt16allocator_traitsISaINSt8__detail10_Hash_nodeISt4pairIKNSt7__cxx1112basic_stringIcSt11char_traitsIcESaIcEEES8_ELb1EEEEE8allocateERSC_m+0x28>
  28:	c9                   	leaveq 
  29:	c3                   	retq   

Disassembly of section .text._ZSt11__addressofINSt8__detail10_Hash_nodeISt4pairIKNSt7__cxx1112basic_stringIcSt11char_traitsIcESaIcEEES8_ELb1EEEEPT_RSC_:

0000000000000000 <_ZSt11__addressofINSt8__detail10_Hash_nodeISt4pairIKNSt7__cxx1112basic_stringIcSt11char_traitsIcESaIcEEES8_ELb1EEEEPT_RSC_>:
   0:	55                   	push   %rbp
   1:	48 89 e5             	mov    %rsp,%rbp
   4:	48 89 7d f8          	mov    %rdi,-0x8(%rbp)
   8:	48 8b 45 f8          	mov    -0x8(%rbp),%rax
   c:	5d                   	pop    %rbp
   d:	c3                   	retq   

Disassembly of section .text._ZNSaISt4pairIKNSt7__cxx1112basic_stringIcSt11char_traitsIcESaIcEEES5_EEC2INSt8__detail10_Hash_nodeIS7_Lb1EEEEERKSaIT_E:

0000000000000000 <_ZNSaISt4pairIKNSt7__cxx1112basic_stringIcSt11char_traitsIcESaIcEEES5_EEC1INSt8__detail10_Hash_nodeIS7_Lb1EEEEERKSaIT_E>:
   0:	55                   	push   %rbp
   1:	48 89 e5             	mov    %rsp,%rbp
   4:	48 83 ec 10          	sub    $0x10,%rsp
   8:	48 89 7d f8          	mov    %rdi,-0x8(%rbp)
   c:	48 89 75 f0          	mov    %rsi,-0x10(%rbp)
  10:	48 8b 45 f8          	mov    -0x8(%rbp),%rax
  14:	48 89 c7             	mov    %rax,%rdi
  17:	e8 00 00 00 00       	callq  1c <_ZNSaISt4pairIKNSt7__cxx1112basic_stringIcSt11char_traitsIcESaIcEEES5_EEC1INSt8__detail10_Hash_nodeIS7_Lb1EEEEERKSaIT_E+0x1c>
  1c:	90                   	nop
  1d:	c9                   	leaveq 
  1e:	c3                   	retq   

Disassembly of section .text._ZNSt8__detail21_Hash_node_value_baseISt4pairIKNSt7__cxx1112basic_stringIcSt11char_traitsIcESaIcEEES7_EE9_M_valptrEv:

0000000000000000 <_ZNSt8__detail21_Hash_node_value_baseISt4pairIKNSt7__cxx1112basic_stringIcSt11char_traitsIcESaIcEEES7_EE9_M_valptrEv>:
   0:	55                   	push   %rbp
   1:	48 89 e5             	mov    %rsp,%rbp
   4:	48 83 ec 10          	sub    $0x10,%rsp
   8:	48 89 7d f8          	mov    %rdi,-0x8(%rbp)
   c:	48 8b 45 f8          	mov    -0x8(%rbp),%rax
  10:	48 83 c0 08          	add    $0x8,%rax
  14:	48 89 c7             	mov    %rax,%rdi
  17:	e8 00 00 00 00       	callq  1c <_ZNSt8__detail21_Hash_node_value_baseISt4pairIKNSt7__cxx1112basic_stringIcSt11char_traitsIcESaIcEEES7_EE9_M_valptrEv+0x1c>
  1c:	c9                   	leaveq 
  1d:	c3                   	retq   

Disassembly of section .text._ZNSt16allocator_traitsISaISt4pairIKNSt7__cxx1112basic_stringIcSt11char_traitsIcESaIcEEES6_EEE9constructIS8_JRKSt21piecewise_construct_tSt5tupleIJRS7_EESF_IJEEEEEvRS9_PT_DpOT0_:

0000000000000000 <_ZNSt16allocator_traitsISaISt4pairIKNSt7__cxx1112basic_stringIcSt11char_traitsIcESaIcEEES6_EEE9constructIS8_JRKSt21piecewise_construct_tSt5tupleIJRS7_EESF_IJEEEEEvRS9_PT_DpOT0_>:
   0:	55                   	push   %rbp
   1:	48 89 e5             	mov    %rsp,%rbp
   4:	41 54                	push   %r12
   6:	53                   	push   %rbx
   7:	48 83 ec 30          	sub    $0x30,%rsp
   b:	48 89 7d e8          	mov    %rdi,-0x18(%rbp)
   f:	48 89 75 e0          	mov    %rsi,-0x20(%rbp)
  13:	48 89 55 d8          	mov    %rdx,-0x28(%rbp)
  17:	48 89 4d d0          	mov    %rcx,-0x30(%rbp)
  1b:	4c 89 45 c8          	mov    %r8,-0x38(%rbp)
  1f:	48 8b 45 c8          	mov    -0x38(%rbp),%rax
  23:	48 89 c7             	mov    %rax,%rdi
  26:	e8 00 00 00 00       	callq  2b <_ZNSt16allocator_traitsISaISt4pairIKNSt7__cxx1112basic_stringIcSt11char_traitsIcESaIcEEES6_EEE9constructIS8_JRKSt21piecewise_construct_tSt5tupleIJRS7_EESF_IJEEEEEvRS9_PT_DpOT0_+0x2b>
  2b:	49 89 c4             	mov    %rax,%r12
  2e:	48 8b 45 d0          	mov    -0x30(%rbp),%rax
  32:	48 89 c7             	mov    %rax,%rdi
  35:	e8 00 00 00 00       	callq  3a <_ZNSt16allocator_traitsISaISt4pairIKNSt7__cxx1112basic_stringIcSt11char_traitsIcESaIcEEES6_EEE9constructIS8_JRKSt21piecewise_construct_tSt5tupleIJRS7_EESF_IJEEEEEvRS9_PT_DpOT0_+0x3a>
  3a:	48 89 c3             	mov    %rax,%rbx
  3d:	48 8b 45 d8          	mov    -0x28(%rbp),%rax
  41:	48 89 c7             	mov    %rax,%rdi
  44:	e8 00 00 00 00       	callq  49 <_ZNSt16allocator_traitsISaISt4pairIKNSt7__cxx1112basic_stringIcSt11char_traitsIcESaIcEEES6_EEE9constructIS8_JRKSt21piecewise_construct_tSt5tupleIJRS7_EESF_IJEEEEEvRS9_PT_DpOT0_+0x49>
  49:	48 89 c2             	mov    %rax,%rdx
  4c:	48 8b 75 e0          	mov    -0x20(%rbp),%rsi
  50:	48 8b 45 e8          	mov    -0x18(%rbp),%rax
  54:	4d 89 e0             	mov    %r12,%r8
  57:	48 89 d9             	mov    %rbx,%rcx
  5a:	48 89 c7             	mov    %rax,%rdi
  5d:	e8 00 00 00 00       	callq  62 <_ZNSt16allocator_traitsISaISt4pairIKNSt7__cxx1112basic_stringIcSt11char_traitsIcESaIcEEES6_EEE9constructIS8_JRKSt21piecewise_construct_tSt5tupleIJRS7_EESF_IJEEEEEvRS9_PT_DpOT0_+0x62>
  62:	90                   	nop
  63:	48 83 c4 30          	add    $0x30,%rsp
  67:	5b                   	pop    %rbx
  68:	41 5c                	pop    %r12
  6a:	5d                   	pop    %rbp
  6b:	c3                   	retq   

Disassembly of section .text._ZNSt16allocator_traitsISaINSt8__detail10_Hash_nodeISt4pairIKNSt7__cxx1112basic_stringIcSt11char_traitsIcESaIcEEES8_ELb1EEEEE10deallocateERSC_PSB_m:

0000000000000000 <_ZNSt16allocator_traitsISaINSt8__detail10_Hash_nodeISt4pairIKNSt7__cxx1112basic_stringIcSt11char_traitsIcESaIcEEES8_ELb1EEEEE10deallocateERSC_PSB_m>:
   0:	55                   	push   %rbp
   1:	48 89 e5             	mov    %rsp,%rbp
   4:	48 83 ec 20          	sub    $0x20,%rsp
   8:	48 89 7d f8          	mov    %rdi,-0x8(%rbp)
   c:	48 89 75 f0          	mov    %rsi,-0x10(%rbp)
  10:	48 89 55 e8          	mov    %rdx,-0x18(%rbp)
  14:	48 8b 55 e8          	mov    -0x18(%rbp),%rdx
  18:	48 8b 4d f0          	mov    -0x10(%rbp),%rcx
  1c:	48 8b 45 f8          	mov    -0x8(%rbp),%rax
  20:	48 89 ce             	mov    %rcx,%rsi
  23:	48 89 c7             	mov    %rax,%rdi
  26:	e8 00 00 00 00       	callq  2b <_ZNSt16allocator_traitsISaINSt8__detail10_Hash_nodeISt4pairIKNSt7__cxx1112basic_stringIcSt11char_traitsIcESaIcEEES8_ELb1EEEEE10deallocateERSC_PSB_m+0x2b>
  2b:	90                   	nop
  2c:	c9                   	leaveq 
  2d:	c3                   	retq   

Disassembly of section .text._ZNSt10_HashtableINSt7__cxx1112basic_stringIcSt11char_traitsIcESaIcEEESt4pairIKS5_S5_ESaIS8_ENSt8__detail10_Select1stESt8equal_toIS5_ESt4hashIS5_ENSA_18_Mod_range_hashingENSA_20_Default_ranged_hashENSA_20_Prime_rehash_policyENSA_17_Hashtable_traitsILb1ELb0ELb1EEEE9_M_rehashEmRKm:

0000000000000000 <_ZNSt10_HashtableINSt7__cxx1112basic_stringIcSt11char_traitsIcESaIcEEESt4pairIKS5_S5_ESaIS8_ENSt8__detail10_Select1stESt8equal_toIS5_ESt4hashIS5_ENSA_18_Mod_range_hashingENSA_20_Default_ranged_hashENSA_20_Prime_rehash_policyENSA_17_Hashtable_traitsILb1ELb0ELb1EEEE9_M_rehashEmRKm>:
   0:	55                   	push   %rbp
   1:	48 89 e5             	mov    %rsp,%rbp
   4:	53                   	push   %rbx
   5:	48 83 ec 38          	sub    $0x38,%rsp
   9:	48 89 7d d8          	mov    %rdi,-0x28(%rbp)
   d:	48 89 75 d0          	mov    %rsi,-0x30(%rbp)
  11:	48 89 55 c8          	mov    %rdx,-0x38(%rbp)
  15:	64 48 8b 04 25 28 00 	mov    %fs:0x28,%rax
  1c:	00 00 
  1e:	48 89 45 e8          	mov    %rax,-0x18(%rbp)
  22:	31 c0                	xor    %eax,%eax
  24:	48 8b 55 d0          	mov    -0x30(%rbp),%rdx
  28:	48 8b 45 d8          	mov    -0x28(%rbp),%rax
  2c:	48 83 ec 08          	sub    $0x8,%rsp
  30:	51                   	push   %rcx
  31:	48 89 d6             	mov    %rdx,%rsi
  34:	48 89 c7             	mov    %rax,%rdi
  37:	e8 00 00 00 00       	callq  3c <_ZNSt10_HashtableINSt7__cxx1112basic_stringIcSt11char_traitsIcESaIcEEESt4pairIKS5_S5_ESaIS8_ENSt8__detail10_Select1stESt8equal_toIS5_ESt4hashIS5_ENSA_18_Mod_range_hashingENSA_20_Default_ranged_hashENSA_20_Prime_rehash_policyENSA_17_Hashtable_traitsILb1ELb0ELb1EEEE9_M_rehashEmRKm+0x3c>
  3c:	48 83 c4 10          	add    $0x10,%rsp
  40:	90                   	nop
  41:	48 8b 45 e8          	mov    -0x18(%rbp),%rax
  45:	64 48 33 04 25 28 00 	xor    %fs:0x28,%rax
  4c:	00 00 
  4e:	74 41                	je     91 <_ZNSt10_HashtableINSt7__cxx1112basic_stringIcSt11char_traitsIcESaIcEEESt4pairIKS5_S5_ESaIS8_ENSt8__detail10_Select1stESt8equal_toIS5_ESt4hashIS5_ENSA_18_Mod_range_hashingENSA_20_Default_ranged_hashENSA_20_Prime_rehash_policyENSA_17_Hashtable_traitsILb1ELb0ELb1EEEE9_M_rehashEmRKm+0x91>
  50:	eb 3a                	jmp    8c <_ZNSt10_HashtableINSt7__cxx1112basic_stringIcSt11char_traitsIcESaIcEEESt4pairIKS5_S5_ESaIS8_ENSt8__detail10_Select1stESt8equal_toIS5_ESt4hashIS5_ENSA_18_Mod_range_hashingENSA_20_Default_ranged_hashENSA_20_Prime_rehash_policyENSA_17_Hashtable_traitsILb1ELb0ELb1EEEE9_M_rehashEmRKm+0x8c>
  52:	48 89 c7             	mov    %rax,%rdi
  55:	e8 00 00 00 00       	callq  5a <_ZNSt10_HashtableINSt7__cxx1112basic_stringIcSt11char_traitsIcESaIcEEESt4pairIKS5_S5_ESaIS8_ENSt8__detail10_Select1stESt8equal_toIS5_ESt4hashIS5_ENSA_18_Mod_range_hashingENSA_20_Default_ranged_hashENSA_20_Prime_rehash_policyENSA_17_Hashtable_traitsILb1ELb0ELb1EEEE9_M_rehashEmRKm+0x5a>
  5a:	48 8b 45 d8          	mov    -0x28(%rbp),%rax
  5e:	48 8d 50 20          	lea    0x20(%rax),%rdx
  62:	48 8b 45 c8          	mov    -0x38(%rbp),%rax
  66:	48 8b 00             	mov    (%rax),%rax
  69:	48 89 c6             	mov    %rax,%rsi
  6c:	48 89 d7             	mov    %rdx,%rdi
  6f:	e8 00 00 00 00       	callq  74 <_ZNSt10_HashtableINSt7__cxx1112basic_stringIcSt11char_traitsIcESaIcEEESt4pairIKS5_S5_ESaIS8_ENSt8__detail10_Select1stESt8equal_toIS5_ESt4hashIS5_ENSA_18_Mod_range_hashingENSA_20_Default_ranged_hashENSA_20_Prime_rehash_policyENSA_17_Hashtable_traitsILb1ELb0ELb1EEEE9_M_rehashEmRKm+0x74>
  74:	e8 00 00 00 00       	callq  79 <_ZNSt10_HashtableINSt7__cxx1112basic_stringIcSt11char_traitsIcESaIcEEESt4pairIKS5_S5_ESaIS8_ENSt8__detail10_Select1stESt8equal_toIS5_ESt4hashIS5_ENSA_18_Mod_range_hashingENSA_20_Default_ranged_hashENSA_20_Prime_rehash_policyENSA_17_Hashtable_traitsILb1ELb0ELb1EEEE9_M_rehashEmRKm+0x79>
  79:	48 89 c3             	mov    %rax,%rbx
  7c:	e8 00 00 00 00       	callq  81 <_ZNSt10_HashtableINSt7__cxx1112basic_stringIcSt11char_traitsIcESaIcEEESt4pairIKS5_S5_ESaIS8_ENSt8__detail10_Select1stESt8equal_toIS5_ESt4hashIS5_ENSA_18_Mod_range_hashingENSA_20_Default_ranged_hashENSA_20_Prime_rehash_policyENSA_17_Hashtable_traitsILb1ELb0ELb1EEEE9_M_rehashEmRKm+0x81>
  81:	48 89 d8             	mov    %rbx,%rax
  84:	48 89 c7             	mov    %rax,%rdi
  87:	e8 00 00 00 00       	callq  8c <_ZNSt10_HashtableINSt7__cxx1112basic_stringIcSt11char_traitsIcESaIcEEESt4pairIKS5_S5_ESaIS8_ENSt8__detail10_Select1stESt8equal_toIS5_ESt4hashIS5_ENSA_18_Mod_range_hashingENSA_20_Default_ranged_hashENSA_20_Prime_rehash_policyENSA_17_Hashtable_traitsILb1ELb0ELb1EEEE9_M_rehashEmRKm+0x8c>
  8c:	e8 00 00 00 00       	callq  91 <_ZNSt10_HashtableINSt7__cxx1112basic_stringIcSt11char_traitsIcESaIcEEESt4pairIKS5_S5_ESaIS8_ENSt8__detail10_Select1stESt8equal_toIS5_ESt4hashIS5_ENSA_18_Mod_range_hashingENSA_20_Default_ranged_hashENSA_20_Prime_rehash_policyENSA_17_Hashtable_traitsILb1ELb0ELb1EEEE9_M_rehashEmRKm+0x91>
  91:	48 8b 5d f8          	mov    -0x8(%rbp),%rbx
  95:	c9                   	leaveq 
  96:	c3                   	retq   

Disassembly of section .text._ZNSt8__detail15_Hash_code_baseINSt7__cxx1112basic_stringIcSt11char_traitsIcESaIcEEESt4pairIKS6_S6_ENS_10_Select1stESt4hashIS6_ENS_18_Mod_range_hashingENS_20_Default_ranged_hashELb1EE10_M_extractEv:

0000000000000000 <_ZNSt8__detail15_Hash_code_baseINSt7__cxx1112basic_stringIcSt11char_traitsIcESaIcEEESt4pairIKS6_S6_ENS_10_Select1stESt4hashIS6_ENS_18_Mod_range_hashingENS_20_Default_ranged_hashELb1EE10_M_extractEv>:
   0:	55                   	push   %rbp
   1:	48 89 e5             	mov    %rsp,%rbp
   4:	48 83 ec 10          	sub    $0x10,%rsp
   8:	48 89 7d f8          	mov    %rdi,-0x8(%rbp)
   c:	48 8b 45 f8          	mov    -0x8(%rbp),%rax
  10:	48 89 c7             	mov    %rax,%rdi
  13:	e8 00 00 00 00       	callq  18 <_ZNSt8__detail15_Hash_code_baseINSt7__cxx1112basic_stringIcSt11char_traitsIcESaIcEEESt4pairIKS6_S6_ENS_10_Select1stESt4hashIS6_ENS_18_Mod_range_hashingENS_20_Default_ranged_hashELb1EE10_M_extractEv+0x18>
  18:	c9                   	leaveq 
  19:	c3                   	retq   

Disassembly of section .text._ZNKSt8__detail10_Select1stclIRSt4pairIKNSt7__cxx1112basic_stringIcSt11char_traitsIcESaIcEEES8_EEEDTcl3getILi0EEcl7forwardIT_Efp_EEEOSC_:

0000000000000000 <_ZNKSt8__detail10_Select1stclIRSt4pairIKNSt7__cxx1112basic_stringIcSt11char_traitsIcESaIcEEES8_EEEDTcl3getILi0EEcl7forwardIT_Efp_EEEOSC_>:
   0:	55                   	push   %rbp
   1:	48 89 e5             	mov    %rsp,%rbp
   4:	48 83 ec 10          	sub    $0x10,%rsp
   8:	48 89 7d f8          	mov    %rdi,-0x8(%rbp)
   c:	48 89 75 f0          	mov    %rsi,-0x10(%rbp)
  10:	48 8b 45 f0          	mov    -0x10(%rbp),%rax
  14:	48 89 c7             	mov    %rax,%rdi
  17:	e8 00 00 00 00       	callq  1c <_ZNKSt8__detail10_Select1stclIRSt4pairIKNSt7__cxx1112basic_stringIcSt11char_traitsIcESaIcEEES8_EEEDTcl3getILi0EEcl7forwardIT_Efp_EEEOSC_+0x1c>
  1c:	48 89 c7             	mov    %rax,%rdi
  1f:	e8 00 00 00 00       	callq  24 <_ZNKSt8__detail10_Select1stclIRSt4pairIKNSt7__cxx1112basic_stringIcSt11char_traitsIcESaIcEEES8_EEEDTcl3getILi0EEcl7forwardIT_Efp_EEEOSC_+0x24>
  24:	c9                   	leaveq 
  25:	c3                   	retq   

Disassembly of section .text._ZNKSt8__detail15_Hash_code_baseINSt7__cxx1112basic_stringIcSt11char_traitsIcESaIcEEESt4pairIKS6_S6_ENS_10_Select1stESt4hashIS6_ENS_18_Mod_range_hashingENS_20_Default_ranged_hashELb1EE13_M_store_codeEPNS_10_Hash_nodeIS9_Lb1EEEm:

0000000000000000 <_ZNKSt8__detail15_Hash_code_baseINSt7__cxx1112basic_stringIcSt11char_traitsIcESaIcEEESt4pairIKS6_S6_ENS_10_Select1stESt4hashIS6_ENS_18_Mod_range_hashingENS_20_Default_ranged_hashELb1EE13_M_store_codeEPNS_10_Hash_nodeIS9_Lb1EEEm>:
   0:	55                   	push   %rbp
   1:	48 89 e5             	mov    %rsp,%rbp
   4:	48 89 7d f8          	mov    %rdi,-0x8(%rbp)
   8:	48 89 75 f0          	mov    %rsi,-0x10(%rbp)
   c:	48 89 55 e8          	mov    %rdx,-0x18(%rbp)
  10:	48 8b 45 f0          	mov    -0x10(%rbp),%rax
  14:	48 8b 55 e8          	mov    -0x18(%rbp),%rdx
  18:	48 89 50 48          	mov    %rdx,0x48(%rax)
  1c:	90                   	nop
  1d:	5d                   	pop    %rbp
  1e:	c3                   	retq   

Disassembly of section .text._ZNSt10_HashtableINSt7__cxx1112basic_stringIcSt11char_traitsIcESaIcEEESt4pairIKS5_S5_ESaIS8_ENSt8__detail10_Select1stESt8equal_toIS5_ESt4hashIS5_ENSA_18_Mod_range_hashingENSA_20_Default_ranged_hashENSA_20_Prime_rehash_policyENSA_17_Hashtable_traitsILb1ELb0ELb1EEEE22_M_insert_bucket_beginEmPNSA_10_Hash_nodeIS8_Lb1EEE:

0000000000000000 <_ZNSt10_HashtableINSt7__cxx1112basic_stringIcSt11char_traitsIcESaIcEEESt4pairIKS5_S5_ESaIS8_ENSt8__detail10_Select1stESt8equal_toIS5_ESt4hashIS5_ENSA_18_Mod_range_hashingENSA_20_Default_ranged_hashENSA_20_Prime_rehash_policyENSA_17_Hashtable_traitsILb1ELb0ELb1EEEE22_M_insert_bucket_beginEmPNSA_10_Hash_nodeIS8_Lb1EEE>:
   0:	55                   	push   %rbp
   1:	48 89 e5             	mov    %rsp,%rbp
   4:	53                   	push   %rbx
   5:	48 83 ec 28          	sub    $0x28,%rsp
   9:	48 89 7d e8          	mov    %rdi,-0x18(%rbp)
   d:	48 89 75 e0          	mov    %rsi,-0x20(%rbp)
  11:	48 89 55 d8          	mov    %rdx,-0x28(%rbp)
  15:	48 8b 45 e8          	mov    -0x18(%rbp),%rax
  19:	48 8b 00             	mov    (%rax),%rax
  1c:	48 8b 55 e0          	mov    -0x20(%rbp),%rdx
  20:	48 c1 e2 03          	shl    $0x3,%rdx
  24:	48 01 d0             	add    %rdx,%rax
  27:	48 8b 00             	mov    (%rax),%rax
  2a:	48 85 c0             	test   %rax,%rax
  2d:	74 3d                	je     6c <_ZNSt10_HashtableINSt7__cxx1112basic_stringIcSt11char_traitsIcESaIcEEESt4pairIKS5_S5_ESaIS8_ENSt8__detail10_Select1stESt8equal_toIS5_ESt4hashIS5_ENSA_18_Mod_range_hashingENSA_20_Default_ranged_hashENSA_20_Prime_rehash_policyENSA_17_Hashtable_traitsILb1ELb0ELb1EEEE22_M_insert_bucket_beginEmPNSA_10_Hash_nodeIS8_Lb1EEE+0x6c>
  2f:	48 8b 45 e8          	mov    -0x18(%rbp),%rax
  33:	48 8b 00             	mov    (%rax),%rax
  36:	48 8b 55 e0          	mov    -0x20(%rbp),%rdx
  3a:	48 c1 e2 03          	shl    $0x3,%rdx
  3e:	48 01 d0             	add    %rdx,%rax
  41:	48 8b 00             	mov    (%rax),%rax
  44:	48 8b 10             	mov    (%rax),%rdx
  47:	48 8b 45 d8          	mov    -0x28(%rbp),%rax
  4b:	48 89 10             	mov    %rdx,(%rax)
  4e:	48 8b 45 e8          	mov    -0x18(%rbp),%rax
  52:	48 8b 00             	mov    (%rax),%rax
  55:	48 8b 55 e0          	mov    -0x20(%rbp),%rdx
  59:	48 c1 e2 03          	shl    $0x3,%rdx
  5d:	48 01 d0             	add    %rdx,%rax
  60:	48 8b 00             	mov    (%rax),%rax
  63:	48 8b 55 d8          	mov    -0x28(%rbp),%rdx
  67:	48 89 10             	mov    %rdx,(%rax)
  6a:	eb 78                	jmp    e4 <_ZNSt10_HashtableINSt7__cxx1112basic_stringIcSt11char_traitsIcESaIcEEESt4pairIKS5_S5_ESaIS8_ENSt8__detail10_Select1stESt8equal_toIS5_ESt4hashIS5_ENSA_18_Mod_range_hashingENSA_20_Default_ranged_hashENSA_20_Prime_rehash_policyENSA_17_Hashtable_traitsILb1ELb0ELb1EEEE22_M_insert_bucket_beginEmPNSA_10_Hash_nodeIS8_Lb1EEE+0xe4>
  6c:	48 8b 45 e8          	mov    -0x18(%rbp),%rax
  70:	48 8b 50 10          	mov    0x10(%rax),%rdx
  74:	48 8b 45 d8          	mov    -0x28(%rbp),%rax
  78:	48 89 10             	mov    %rdx,(%rax)
  7b:	48 8b 45 e8          	mov    -0x18(%rbp),%rax
  7f:	48 8b 55 d8          	mov    -0x28(%rbp),%rdx
  83:	48 89 50 10          	mov    %rdx,0x10(%rax)
  87:	48 8b 45 d8          	mov    -0x28(%rbp),%rax
  8b:	48 8b 00             	mov    (%rax),%rax
  8e:	48 85 c0             	test   %rax,%rax
  91:	74 34                	je     c7 <_ZNSt10_HashtableINSt7__cxx1112basic_stringIcSt11char_traitsIcESaIcEEESt4pairIKS5_S5_ESaIS8_ENSt8__detail10_Select1stESt8equal_toIS5_ESt4hashIS5_ENSA_18_Mod_range_hashingENSA_20_Default_ranged_hashENSA_20_Prime_rehash_policyENSA_17_Hashtable_traitsILb1ELb0ELb1EEEE22_M_insert_bucket_beginEmPNSA_10_Hash_nodeIS8_Lb1EEE+0xc7>
  93:	48 8b 45 e8          	mov    -0x18(%rbp),%rax
  97:	48 8b 18             	mov    (%rax),%rbx
  9a:	48 8b 45 d8          	mov    -0x28(%rbp),%rax
  9e:	48 89 c7             	mov    %rax,%rdi
  a1:	e8 00 00 00 00       	callq  a6 <_ZNSt10_HashtableINSt7__cxx1112basic_stringIcSt11char_traitsIcESaIcEEESt4pairIKS5_S5_ESaIS8_ENSt8__detail10_Select1stESt8equal_toIS5_ESt4hashIS5_ENSA_18_Mod_range_hashingENSA_20_Default_ranged_hashENSA_20_Prime_rehash_policyENSA_17_Hashtable_traitsILb1ELb0ELb1EEEE22_M_insert_bucket_beginEmPNSA_10_Hash_nodeIS8_Lb1EEE+0xa6>
  a6:	48 89 c2             	mov    %rax,%rdx
  a9:	48 8b 45 e8          	mov    -0x18(%rbp),%rax
  ad:	48 89 d6             	mov    %rdx,%rsi
  b0:	48 89 c7             	mov    %rax,%rdi
  b3:	e8 00 00 00 00       	callq  b8 <_ZNSt10_HashtableINSt7__cxx1112basic_stringIcSt11char_traitsIcESaIcEEESt4pairIKS5_S5_ESaIS8_ENSt8__detail10_Select1stESt8equal_toIS5_ESt4hashIS5_ENSA_18_Mod_range_hashingENSA_20_Default_ranged_hashENSA_20_Prime_rehash_policyENSA_17_Hashtable_traitsILb1ELb0ELb1EEEE22_M_insert_bucket_beginEmPNSA_10_Hash_nodeIS8_Lb1EEE+0xb8>
  b8:	48 c1 e0 03          	shl    $0x3,%rax
  bc:	48 8d 14 03          	lea    (%rbx,%rax,1),%rdx
  c0:	48 8b 45 d8          	mov    -0x28(%rbp),%rax
  c4:	48 89 02             	mov    %rax,(%rdx)
  c7:	48 8b 45 e8          	mov    -0x18(%rbp),%rax
  cb:	48 8b 00             	mov    (%rax),%rax
  ce:	48 8b 55 e0          	mov    -0x20(%rbp),%rdx
  d2:	48 c1 e2 03          	shl    $0x3,%rdx
  d6:	48 01 d0             	add    %rdx,%rax
  d9:	48 8b 55 e8          	mov    -0x18(%rbp),%rdx
  dd:	48 83 c2 10          	add    $0x10,%rdx
  e1:	48 89 10             	mov    %rdx,(%rax)
  e4:	90                   	nop
  e5:	48 83 c4 28          	add    $0x28,%rsp
  e9:	5b                   	pop    %rbx
  ea:	5d                   	pop    %rbp
  eb:	c3                   	retq   

Disassembly of section .text._ZNSt7__cxx1112basic_stringIcSt11char_traitsIcESaIcEE12_M_constructIPcEEvT_S7_St20forward_iterator_tag:

0000000000000000 <_ZNSt7__cxx1112basic_stringIcSt11char_traitsIcESaIcEE12_M_constructIPcEEvT_S7_St20forward_iterator_tag>:
   0:	55                   	push   %rbp
   1:	48 89 e5             	mov    %rsp,%rbp
   4:	53                   	push   %rbx
   5:	48 83 ec 38          	sub    $0x38,%rsp
   9:	48 89 7d d8          	mov    %rdi,-0x28(%rbp)
   d:	48 89 75 d0          	mov    %rsi,-0x30(%rbp)
  11:	48 89 55 c8          	mov    %rdx,-0x38(%rbp)
  15:	64 48 8b 04 25 28 00 	mov    %fs:0x28,%rax
  1c:	00 00 
  1e:	48 89 45 e8          	mov    %rax,-0x18(%rbp)
  22:	31 c0                	xor    %eax,%eax
  24:	48 8b 45 d0          	mov    -0x30(%rbp),%rax
  28:	48 89 c7             	mov    %rax,%rdi
  2b:	e8 00 00 00 00       	callq  30 <_ZNSt7__cxx1112basic_stringIcSt11char_traitsIcESaIcEE12_M_constructIPcEEvT_S7_St20forward_iterator_tag+0x30>
  30:	84 c0                	test   %al,%al
  32:	74 11                	je     45 <_ZNSt7__cxx1112basic_stringIcSt11char_traitsIcESaIcEE12_M_constructIPcEEvT_S7_St20forward_iterator_tag+0x45>
  34:	48 8b 45 d0          	mov    -0x30(%rbp),%rax
  38:	48 3b 45 c8          	cmp    -0x38(%rbp),%rax
  3c:	74 07                	je     45 <_ZNSt7__cxx1112basic_stringIcSt11char_traitsIcESaIcEE12_M_constructIPcEEvT_S7_St20forward_iterator_tag+0x45>
  3e:	b8 01 00 00 00       	mov    $0x1,%eax
  43:	eb 05                	jmp    4a <_ZNSt7__cxx1112basic_stringIcSt11char_traitsIcESaIcEE12_M_constructIPcEEvT_S7_St20forward_iterator_tag+0x4a>
  45:	b8 00 00 00 00       	mov    $0x0,%eax
  4a:	84 c0                	test   %al,%al
  4c:	74 0c                	je     5a <_ZNSt7__cxx1112basic_stringIcSt11char_traitsIcESaIcEE12_M_constructIPcEEvT_S7_St20forward_iterator_tag+0x5a>
  4e:	48 8d 3d 00 00 00 00 	lea    0x0(%rip),%rdi        # 55 <_ZNSt7__cxx1112basic_stringIcSt11char_traitsIcESaIcEE12_M_constructIPcEEvT_S7_St20forward_iterator_tag+0x55>
  55:	e8 00 00 00 00       	callq  5a <_ZNSt7__cxx1112basic_stringIcSt11char_traitsIcESaIcEE12_M_constructIPcEEvT_S7_St20forward_iterator_tag+0x5a>
  5a:	48 8b 55 c8          	mov    -0x38(%rbp),%rdx
  5e:	48 8b 45 d0          	mov    -0x30(%rbp),%rax
  62:	48 89 d6             	mov    %rdx,%rsi
  65:	48 89 c7             	mov    %rax,%rdi
  68:	e8 00 00 00 00       	callq  6d <_ZNSt7__cxx1112basic_stringIcSt11char_traitsIcESaIcEE12_M_constructIPcEEvT_S7_St20forward_iterator_tag+0x6d>
  6d:	48 89 45 e0          	mov    %rax,-0x20(%rbp)
  71:	48 8b 45 e0          	mov    -0x20(%rbp),%rax
  75:	48 83 f8 0f          	cmp    $0xf,%rax
  79:	76 3d                	jbe    b8 <_ZNSt7__cxx1112basic_stringIcSt11char_traitsIcESaIcEE12_M_constructIPcEEvT_S7_St20forward_iterator_tag+0xb8>
  7b:	48 8d 4d e0          	lea    -0x20(%rbp),%rcx
  7f:	48 8b 45 d8          	mov    -0x28(%rbp),%rax
  83:	ba 00 00 00 00       	mov    $0x0,%edx
  88:	48 89 ce             	mov    %rcx,%rsi
  8b:	48 89 c7             	mov    %rax,%rdi
  8e:	e8 00 00 00 00       	callq  93 <_ZNSt7__cxx1112basic_stringIcSt11char_traitsIcESaIcEE12_M_constructIPcEEvT_S7_St20forward_iterator_tag+0x93>
  93:	48 89 c2             	mov    %rax,%rdx
  96:	48 8b 45 d8          	mov    -0x28(%rbp),%rax
  9a:	48 89 d6             	mov    %rdx,%rsi
  9d:	48 89 c7             	mov    %rax,%rdi
  a0:	e8 00 00 00 00       	callq  a5 <_ZNSt7__cxx1112basic_stringIcSt11char_traitsIcESaIcEE12_M_constructIPcEEvT_S7_St20forward_iterator_tag+0xa5>
  a5:	48 8b 55 e0          	mov    -0x20(%rbp),%rdx
  a9:	48 8b 45 d8          	mov    -0x28(%rbp),%rax
  ad:	48 89 d6             	mov    %rdx,%rsi
  b0:	48 89 c7             	mov    %rax,%rdi
  b3:	e8 00 00 00 00       	callq  b8 <_ZNSt7__cxx1112basic_stringIcSt11char_traitsIcESaIcEE12_M_constructIPcEEvT_S7_St20forward_iterator_tag+0xb8>
  b8:	48 8b 45 d8          	mov    -0x28(%rbp),%rax
  bc:	48 89 c7             	mov    %rax,%rdi
  bf:	e8 00 00 00 00       	callq  c4 <_ZNSt7__cxx1112basic_stringIcSt11char_traitsIcESaIcEE12_M_constructIPcEEvT_S7_St20forward_iterator_tag+0xc4>
  c4:	48 89 c1             	mov    %rax,%rcx
  c7:	48 8b 55 c8          	mov    -0x38(%rbp),%rdx
  cb:	48 8b 45 d0          	mov    -0x30(%rbp),%rax
  cf:	48 89 c6             	mov    %rax,%rsi
  d2:	48 89 cf             	mov    %rcx,%rdi
  d5:	e8 00 00 00 00       	callq  da <_ZNSt7__cxx1112basic_stringIcSt11char_traitsIcESaIcEE12_M_constructIPcEEvT_S7_St20forward_iterator_tag+0xda>
  da:	48 8b 55 e0          	mov    -0x20(%rbp),%rdx
  de:	48 8b 45 d8          	mov    -0x28(%rbp),%rax
  e2:	48 89 d6             	mov    %rdx,%rsi
  e5:	48 89 c7             	mov    %rax,%rdi
  e8:	e8 00 00 00 00       	callq  ed <_ZNSt7__cxx1112basic_stringIcSt11char_traitsIcESaIcEE12_M_constructIPcEEvT_S7_St20forward_iterator_tag+0xed>
  ed:	90                   	nop
  ee:	48 8b 45 e8          	mov    -0x18(%rbp),%rax
  f2:	64 48 33 04 25 28 00 	xor    %fs:0x28,%rax
  f9:	00 00 
  fb:	74 33                	je     130 <_ZNSt7__cxx1112basic_stringIcSt11char_traitsIcESaIcEE12_M_constructIPcEEvT_S7_St20forward_iterator_tag+0x130>
  fd:	eb 2c                	jmp    12b <_ZNSt7__cxx1112basic_stringIcSt11char_traitsIcESaIcEE12_M_constructIPcEEvT_S7_St20forward_iterator_tag+0x12b>
  ff:	48 89 c7             	mov    %rax,%rdi
 102:	e8 00 00 00 00       	callq  107 <_ZNSt7__cxx1112basic_stringIcSt11char_traitsIcESaIcEE12_M_constructIPcEEvT_S7_St20forward_iterator_tag+0x107>
 107:	48 8b 45 d8          	mov    -0x28(%rbp),%rax
 10b:	48 89 c7             	mov    %rax,%rdi
 10e:	e8 00 00 00 00       	callq  113 <_ZNSt7__cxx1112basic_stringIcSt11char_traitsIcESaIcEE12_M_constructIPcEEvT_S7_St20forward_iterator_tag+0x113>
 113:	e8 00 00 00 00       	callq  118 <_ZNSt7__cxx1112basic_stringIcSt11char_traitsIcESaIcEE12_M_constructIPcEEvT_S7_St20forward_iterator_tag+0x118>
 118:	48 89 c3             	mov    %rax,%rbx
 11b:	e8 00 00 00 00       	callq  120 <_ZNSt7__cxx1112basic_stringIcSt11char_traitsIcESaIcEE12_M_constructIPcEEvT_S7_St20forward_iterator_tag+0x120>
 120:	48 89 d8             	mov    %rbx,%rax
 123:	48 89 c7             	mov    %rax,%rdi
 126:	e8 00 00 00 00       	callq  12b <_ZNSt7__cxx1112basic_stringIcSt11char_traitsIcESaIcEE12_M_constructIPcEEvT_S7_St20forward_iterator_tag+0x12b>
 12b:	e8 00 00 00 00       	callq  130 <_ZNSt7__cxx1112basic_stringIcSt11char_traitsIcESaIcEE12_M_constructIPcEEvT_S7_St20forward_iterator_tag+0x130>
 130:	48 83 c4 38          	add    $0x38,%rsp
 134:	5b                   	pop    %rbx
 135:	5d                   	pop    %rbp
 136:	c3                   	retq   

Disassembly of section .text._ZN9__gnu_cxx13new_allocatorI6ClientEC2ERKS2_:

0000000000000000 <_ZN9__gnu_cxx13new_allocatorI6ClientEC1ERKS2_>:
   0:	55                   	push   %rbp
   1:	48 89 e5             	mov    %rsp,%rbp
   4:	48 89 7d f8          	mov    %rdi,-0x8(%rbp)
   8:	48 89 75 f0          	mov    %rsi,-0x10(%rbp)
   c:	90                   	nop
   d:	5d                   	pop    %rbp
   e:	c3                   	retq   

Disassembly of section .text._ZN9__gnu_cxx13new_allocatorI6ClientE10deallocateEPS1_m:

0000000000000000 <_ZN9__gnu_cxx13new_allocatorI6ClientE10deallocateEPS1_m>:
   0:	55                   	push   %rbp
   1:	48 89 e5             	mov    %rsp,%rbp
   4:	48 83 ec 20          	sub    $0x20,%rsp
   8:	48 89 7d f8          	mov    %rdi,-0x8(%rbp)
   c:	48 89 75 f0          	mov    %rsi,-0x10(%rbp)
  10:	48 89 55 e8          	mov    %rdx,-0x18(%rbp)
  14:	48 8b 45 f0          	mov    -0x10(%rbp),%rax
  18:	48 89 c7             	mov    %rax,%rdi
  1b:	e8 00 00 00 00       	callq  20 <_ZN9__gnu_cxx13new_allocatorI6ClientE10deallocateEPS1_m+0x20>
  20:	90                   	nop
  21:	c9                   	leaveq 
  22:	c3                   	retq   

Disassembly of section .text._ZN9__gnu_cxx13new_allocatorI6ClientE8allocateEmPKv:

0000000000000000 <_ZN9__gnu_cxx13new_allocatorI6ClientE8allocateEmPKv>:
   0:	55                   	push   %rbp
   1:	48 89 e5             	mov    %rsp,%rbp
   4:	48 83 ec 20          	sub    $0x20,%rsp
   8:	48 89 7d f8          	mov    %rdi,-0x8(%rbp)
   c:	48 89 75 f0          	mov    %rsi,-0x10(%rbp)
  10:	48 89 55 e8          	mov    %rdx,-0x18(%rbp)
  14:	48 8b 45 f8          	mov    -0x8(%rbp),%rax
  18:	48 89 c7             	mov    %rax,%rdi
  1b:	e8 00 00 00 00       	callq  20 <_ZN9__gnu_cxx13new_allocatorI6ClientE8allocateEmPKv+0x20>
  20:	48 39 45 f0          	cmp    %rax,-0x10(%rbp)
  24:	0f 97 c0             	seta   %al
  27:	84 c0                	test   %al,%al
  29:	74 05                	je     30 <_ZN9__gnu_cxx13new_allocatorI6ClientE8allocateEmPKv+0x30>
  2b:	e8 00 00 00 00       	callq  30 <_ZN9__gnu_cxx13new_allocatorI6ClientE8allocateEmPKv+0x30>
  30:	48 8b 55 f0          	mov    -0x10(%rbp),%rdx
  34:	48 89 d0             	mov    %rdx,%rax
  37:	48 c1 e0 02          	shl    $0x2,%rax
  3b:	48 01 d0             	add    %rdx,%rax
  3e:	48 c1 e0 03          	shl    $0x3,%rax
  42:	48 89 c7             	mov    %rax,%rdi
  45:	e8 00 00 00 00       	callq  4a <_ZN9__gnu_cxx13new_allocatorI6ClientE8allocateEmPKv+0x4a>
  4a:	c9                   	leaveq 
  4b:	c3                   	retq   

Disassembly of section .text._ZNSt20__uninitialized_copyILb0EE13__uninit_copyIPK6ClientPS2_EET0_T_S7_S6_:

0000000000000000 <_ZNSt20__uninitialized_copyILb0EE13__uninit_copyIPK6ClientPS2_EET0_T_S7_S6_>:
   0:	55                   	push   %rbp
   1:	48 89 e5             	mov    %rsp,%rbp
   4:	53                   	push   %rbx
   5:	48 83 ec 38          	sub    $0x38,%rsp
   9:	48 89 7d d8          	mov    %rdi,-0x28(%rbp)
   d:	48 89 75 d0          	mov    %rsi,-0x30(%rbp)
  11:	48 89 55 c8          	mov    %rdx,-0x38(%rbp)
  15:	48 8b 45 c8          	mov    -0x38(%rbp),%rax
  19:	48 89 45 e8          	mov    %rax,-0x18(%rbp)
  1d:	48 8b 45 d8          	mov    -0x28(%rbp),%rax
  21:	48 3b 45 d0          	cmp    -0x30(%rbp),%rax
  25:	74 2a                	je     51 <_ZNSt20__uninitialized_copyILb0EE13__uninit_copyIPK6ClientPS2_EET0_T_S7_S6_+0x51>
  27:	48 8b 45 e8          	mov    -0x18(%rbp),%rax
  2b:	48 89 c7             	mov    %rax,%rdi
  2e:	e8 00 00 00 00       	callq  33 <_ZNSt20__uninitialized_copyILb0EE13__uninit_copyIPK6ClientPS2_EET0_T_S7_S6_+0x33>
  33:	48 89 c2             	mov    %rax,%rdx
  36:	48 8b 45 d8          	mov    -0x28(%rbp),%rax
  3a:	48 89 c6             	mov    %rax,%rsi
  3d:	48 89 d7             	mov    %rdx,%rdi
  40:	e8 00 00 00 00       	callq  45 <_ZNSt20__uninitialized_copyILb0EE13__uninit_copyIPK6ClientPS2_EET0_T_S7_S6_+0x45>
  45:	48 83 45 d8 28       	addq   $0x28,-0x28(%rbp)
  4a:	48 83 45 e8 28       	addq   $0x28,-0x18(%rbp)
  4f:	eb cc                	jmp    1d <_ZNSt20__uninitialized_copyILb0EE13__uninit_copyIPK6ClientPS2_EET0_T_S7_S6_+0x1d>
  51:	48 8b 45 e8          	mov    -0x18(%rbp),%rax
  55:	eb 33                	jmp    8a <_ZNSt20__uninitialized_copyILb0EE13__uninit_copyIPK6ClientPS2_EET0_T_S7_S6_+0x8a>
  57:	48 89 c7             	mov    %rax,%rdi
  5a:	e8 00 00 00 00       	callq  5f <_ZNSt20__uninitialized_copyILb0EE13__uninit_copyIPK6ClientPS2_EET0_T_S7_S6_+0x5f>
  5f:	48 8b 55 e8          	mov    -0x18(%rbp),%rdx
  63:	48 8b 45 c8          	mov    -0x38(%rbp),%rax
  67:	48 89 d6             	mov    %rdx,%rsi
  6a:	48 89 c7             	mov    %rax,%rdi
  6d:	e8 00 00 00 00       	callq  72 <_ZNSt20__uninitialized_copyILb0EE13__uninit_copyIPK6ClientPS2_EET0_T_S7_S6_+0x72>
  72:	e8 00 00 00 00       	callq  77 <_ZNSt20__uninitialized_copyILb0EE13__uninit_copyIPK6ClientPS2_EET0_T_S7_S6_+0x77>
  77:	48 89 c3             	mov    %rax,%rbx
  7a:	e8 00 00 00 00       	callq  7f <_ZNSt20__uninitialized_copyILb0EE13__uninit_copyIPK6ClientPS2_EET0_T_S7_S6_+0x7f>
  7f:	48 89 d8             	mov    %rbx,%rax
  82:	48 89 c7             	mov    %rax,%rdi
  85:	e8 00 00 00 00       	callq  8a <_ZNSt20__uninitialized_copyILb0EE13__uninit_copyIPK6ClientPS2_EET0_T_S7_S6_+0x8a>
  8a:	48 83 c4 38          	add    $0x38,%rsp
  8e:	5b                   	pop    %rbx
  8f:	5d                   	pop    %rbp
  90:	c3                   	retq   

Disassembly of section .text._ZSt8_DestroyI6ClientEvPT_:

0000000000000000 <_ZSt8_DestroyI6ClientEvPT_>:
   0:	55                   	push   %rbp
   1:	48 89 e5             	mov    %rsp,%rbp
   4:	48 83 ec 10          	sub    $0x10,%rsp
   8:	48 89 7d f8          	mov    %rdi,-0x8(%rbp)
   c:	48 8b 45 f8          	mov    -0x8(%rbp),%rax
  10:	48 89 c7             	mov    %rax,%rdi
  13:	e8 00 00 00 00       	callq  18 <_ZSt8_DestroyI6ClientEvPT_+0x18>
  18:	90                   	nop
  19:	c9                   	leaveq 
  1a:	c3                   	retq   

Disassembly of section .text._ZNSaINSt8__detail10_Hash_nodeISt4pairIKNSt7__cxx1112basic_stringIcSt11char_traitsIcESaIcEEES7_ELb1EEEEC2IS9_EERKSaIT_E:

0000000000000000 <_ZNSaINSt8__detail10_Hash_nodeISt4pairIKNSt7__cxx1112basic_stringIcSt11char_traitsIcESaIcEEES7_ELb1EEEEC1IS9_EERKSaIT_E>:
   0:	55                   	push   %rbp
   1:	48 89 e5             	mov    %rsp,%rbp
   4:	48 83 ec 10          	sub    $0x10,%rsp
   8:	48 89 7d f8          	mov    %rdi,-0x8(%rbp)
   c:	48 89 75 f0          	mov    %rsi,-0x10(%rbp)
  10:	48 8b 45 f8          	mov    -0x8(%rbp),%rax
  14:	48 89 c7             	mov    %rax,%rdi
  17:	e8 00 00 00 00       	callq  1c <_ZNSaINSt8__detail10_Hash_nodeISt4pairIKNSt7__cxx1112basic_stringIcSt11char_traitsIcESaIcEEES7_ELb1EEEEC1IS9_EERKSaIT_E+0x1c>
  1c:	90                   	nop
  1d:	c9                   	leaveq 
  1e:	c3                   	retq   

Disassembly of section .text._ZNSt8__detail15_Hashtable_baseINSt7__cxx1112basic_stringIcSt11char_traitsIcESaIcEEESt4pairIKS6_S6_ENS_10_Select1stESt8equal_toIS6_ESt4hashIS6_ENS_18_Mod_range_hashingENS_20_Default_ranged_hashENS_17_Hashtable_traitsILb1ELb0ELb1EEEEC2ERKSA_RKSE_RKSF_RKSG_RKSC_:

0000000000000000 <_ZNSt8__detail15_Hashtable_baseINSt7__cxx1112basic_stringIcSt11char_traitsIcESaIcEEESt4pairIKS6_S6_ENS_10_Select1stESt8equal_toIS6_ESt4hashIS6_ENS_18_Mod_range_hashingENS_20_Default_ranged_hashENS_17_Hashtable_traitsILb1ELb0ELb1EEEEC1ERKSA_RKSE_RKSF_RKSG_RKSC_>:
   0:	55                   	push   %rbp
   1:	48 89 e5             	mov    %rsp,%rbp
   4:	48 83 ec 30          	sub    $0x30,%rsp
   8:	48 89 7d f8          	mov    %rdi,-0x8(%rbp)
   c:	48 89 75 f0          	mov    %rsi,-0x10(%rbp)
  10:	48 89 55 e8          	mov    %rdx,-0x18(%rbp)
  14:	48 89 4d e0          	mov    %rcx,-0x20(%rbp)
  18:	4c 89 45 d8          	mov    %r8,-0x28(%rbp)
  1c:	4c 89 4d d0          	mov    %r9,-0x30(%rbp)
  20:	48 8b 7d d8          	mov    -0x28(%rbp),%rdi
  24:	48 8b 4d e0          	mov    -0x20(%rbp),%rcx
  28:	48 8b 55 e8          	mov    -0x18(%rbp),%rdx
  2c:	48 8b 75 f0          	mov    -0x10(%rbp),%rsi
  30:	48 8b 45 f8          	mov    -0x8(%rbp),%rax
  34:	49 89 f8             	mov    %rdi,%r8
  37:	48 89 c7             	mov    %rax,%rdi
  3a:	e8 00 00 00 00       	callq  3f <_ZNSt8__detail15_Hashtable_baseINSt7__cxx1112basic_stringIcSt11char_traitsIcESaIcEEESt4pairIKS6_S6_ENS_10_Select1stESt8equal_toIS6_ESt4hashIS6_ENS_18_Mod_range_hashingENS_20_Default_ranged_hashENS_17_Hashtable_traitsILb1ELb0ELb1EEEEC1ERKSA_RKSE_RKSF_RKSG_RKSC_+0x3f>
  3f:	48 8b 55 d0          	mov    -0x30(%rbp),%rdx
  43:	48 8b 45 f8          	mov    -0x8(%rbp),%rax
  47:	48 89 d6             	mov    %rdx,%rsi
  4a:	48 89 c7             	mov    %rax,%rdi
  4d:	e8 00 00 00 00       	callq  52 <_ZNSt8__detail15_Hashtable_baseINSt7__cxx1112basic_stringIcSt11char_traitsIcESaIcEEESt4pairIKS6_S6_ENS_10_Select1stESt8equal_toIS6_ESt4hashIS6_ENS_18_Mod_range_hashingENS_20_Default_ranged_hashENS_17_Hashtable_traitsILb1ELb0ELb1EEEEC1ERKSA_RKSE_RKSF_RKSG_RKSC_+0x52>
  52:	90                   	nop
  53:	c9                   	leaveq 
  54:	c3                   	retq   

Disassembly of section .text._ZSt7forwardISaINSt8__detail10_Hash_nodeISt4pairIKNSt7__cxx1112basic_stringIcSt11char_traitsIcESaIcEEES8_ELb1EEEEEOT_RNSt16remove_referenceISD_E4typeE:

0000000000000000 <_ZSt7forwardISaINSt8__detail10_Hash_nodeISt4pairIKNSt7__cxx1112basic_stringIcSt11char_traitsIcESaIcEEES8_ELb1EEEEEOT_RNSt16remove_referenceISD_E4typeE>:
   0:	55                   	push   %rbp
   1:	48 89 e5             	mov    %rsp,%rbp
   4:	48 89 7d f8          	mov    %rdi,-0x8(%rbp)
   8:	48 8b 45 f8          	mov    -0x8(%rbp),%rax
   c:	5d                   	pop    %rbp
   d:	c3                   	retq   

Disassembly of section .text._ZNSt8__detail16_Hashtable_allocISaINS_10_Hash_nodeISt4pairIKNSt7__cxx1112basic_stringIcSt11char_traitsIcESaIcEEES8_ELb1EEEEEC2ISC_EEOT_:

0000000000000000 <_ZNSt8__detail16_Hashtable_allocISaINS_10_Hash_nodeISt4pairIKNSt7__cxx1112basic_stringIcSt11char_traitsIcESaIcEEES8_ELb1EEEEEC1ISC_EEOT_>:
   0:	55                   	push   %rbp
   1:	48 89 e5             	mov    %rsp,%rbp
   4:	48 83 ec 10          	sub    $0x10,%rsp
   8:	48 89 7d f8          	mov    %rdi,-0x8(%rbp)
   c:	48 89 75 f0          	mov    %rsi,-0x10(%rbp)
  10:	48 8b 45 f0          	mov    -0x10(%rbp),%rax
  14:	48 89 c7             	mov    %rax,%rdi
  17:	e8 00 00 00 00       	callq  1c <_ZNSt8__detail16_Hashtable_allocISaINS_10_Hash_nodeISt4pairIKNSt7__cxx1112basic_stringIcSt11char_traitsIcESaIcEEES8_ELb1EEEEEC1ISC_EEOT_+0x1c>
  1c:	48 89 c2             	mov    %rax,%rdx
  1f:	48 8b 45 f8          	mov    -0x8(%rbp),%rax
  23:	48 89 d6             	mov    %rdx,%rsi
  26:	48 89 c7             	mov    %rax,%rdi
  29:	e8 00 00 00 00       	callq  2e <_ZNSt8__detail16_Hashtable_allocISaINS_10_Hash_nodeISt4pairIKNSt7__cxx1112basic_stringIcSt11char_traitsIcESaIcEEES8_ELb1EEEEEC1ISC_EEOT_+0x2e>
  2e:	90                   	nop
  2f:	c9                   	leaveq 
  30:	c3                   	retq   

Disassembly of section .text._ZNSt8__detail13__distance_fwIPKSt4pairIKNSt7__cxx1112basic_stringIcSt11char_traitsIcESaIcEEES7_EEENSt15iterator_traitsIT_E15difference_typeESD_SD_St20forward_iterator_tag:

0000000000000000 <_ZNSt8__detail13__distance_fwIPKSt4pairIKNSt7__cxx1112basic_stringIcSt11char_traitsIcESaIcEEES7_EEENSt15iterator_traitsIT_E15difference_typeESD_SD_St20forward_iterator_tag>:
   0:	55                   	push   %rbp
   1:	48 89 e5             	mov    %rsp,%rbp
   4:	48 83 ec 10          	sub    $0x10,%rsp
   8:	48 89 7d f8          	mov    %rdi,-0x8(%rbp)
   c:	48 89 75 f0          	mov    %rsi,-0x10(%rbp)
  10:	48 8b 55 f0          	mov    -0x10(%rbp),%rdx
  14:	48 8b 45 f8          	mov    -0x8(%rbp),%rax
  18:	48 89 d6             	mov    %rdx,%rsi
  1b:	48 89 c7             	mov    %rax,%rdi
  1e:	e8 00 00 00 00       	callq  23 <_ZNSt8__detail13__distance_fwIPKSt4pairIKNSt7__cxx1112basic_stringIcSt11char_traitsIcESaIcEEES7_EEENSt15iterator_traitsIT_E15difference_typeESD_SD_St20forward_iterator_tag+0x23>
  23:	c9                   	leaveq 
  24:	c3                   	retq   

Disassembly of section .text._ZNSt8__detail16_Hashtable_allocISaINS_10_Hash_nodeISt4pairIKNSt7__cxx1112basic_stringIcSt11char_traitsIcESaIcEEES8_ELb1EEEEE19_M_allocate_bucketsEm:

0000000000000000 <_ZNSt8__detail16_Hashtable_allocISaINS_10_Hash_nodeISt4pairIKNSt7__cxx1112basic_stringIcSt11char_traitsIcESaIcEEES8_ELb1EEEEE19_M_allocate_bucketsEm>:
   0:	55                   	push   %rbp
   1:	48 89 e5             	mov    %rsp,%rbp
   4:	53                   	push   %rbx
   5:	48 83 ec 38          	sub    $0x38,%rsp
   9:	48 89 7d c8          	mov    %rdi,-0x38(%rbp)
   d:	48 89 75 c0          	mov    %rsi,-0x40(%rbp)
  11:	64 48 8b 04 25 28 00 	mov    %fs:0x28,%rax
  18:	00 00 
  1a:	48 89 45 e8          	mov    %rax,-0x18(%rbp)
  1e:	31 c0                	xor    %eax,%eax
  20:	48 8b 45 c8          	mov    -0x38(%rbp),%rax
  24:	48 89 c7             	mov    %rax,%rdi
  27:	e8 00 00 00 00       	callq  2c <_ZNSt8__detail16_Hashtable_allocISaINS_10_Hash_nodeISt4pairIKNSt7__cxx1112basic_stringIcSt11char_traitsIcESaIcEEES8_ELb1EEEEE19_M_allocate_bucketsEm+0x2c>
  2c:	48 89 c2             	mov    %rax,%rdx
  2f:	48 8d 45 d7          	lea    -0x29(%rbp),%rax
  33:	48 89 d6             	mov    %rdx,%rsi
  36:	48 89 c7             	mov    %rax,%rdi
  39:	e8 00 00 00 00       	callq  3e <_ZNSt8__detail16_Hashtable_allocISaINS_10_Hash_nodeISt4pairIKNSt7__cxx1112basic_stringIcSt11char_traitsIcESaIcEEES8_ELb1EEEEE19_M_allocate_bucketsEm+0x3e>
  3e:	48 8b 55 c0          	mov    -0x40(%rbp),%rdx
  42:	48 8d 45 d7          	lea    -0x29(%rbp),%rax
  46:	48 89 d6             	mov    %rdx,%rsi
  49:	48 89 c7             	mov    %rax,%rdi
  4c:	e8 00 00 00 00       	callq  51 <_ZNSt8__detail16_Hashtable_allocISaINS_10_Hash_nodeISt4pairIKNSt7__cxx1112basic_stringIcSt11char_traitsIcESaIcEEES8_ELb1EEEEE19_M_allocate_bucketsEm+0x51>
  51:	48 89 45 d8          	mov    %rax,-0x28(%rbp)
  55:	48 8b 45 d8          	mov    -0x28(%rbp),%rax
  59:	48 89 c7             	mov    %rax,%rdi
  5c:	e8 00 00 00 00       	callq  61 <_ZNSt8__detail16_Hashtable_allocISaINS_10_Hash_nodeISt4pairIKNSt7__cxx1112basic_stringIcSt11char_traitsIcESaIcEEES8_ELb1EEEEE19_M_allocate_bucketsEm+0x61>
  61:	48 89 45 e0          	mov    %rax,-0x20(%rbp)
  65:	48 8b 45 c0          	mov    -0x40(%rbp),%rax
  69:	48 8d 14 c5 00 00 00 	lea    0x0(,%rax,8),%rdx
  70:	00 
  71:	48 8b 45 e0          	mov    -0x20(%rbp),%rax
  75:	be 00 00 00 00       	mov    $0x0,%esi
  7a:	48 89 c7             	mov    %rax,%rdi
  7d:	e8 00 00 00 00       	callq  82 <_ZNSt8__detail16_Hashtable_allocISaINS_10_Hash_nodeISt4pairIKNSt7__cxx1112basic_stringIcSt11char_traitsIcESaIcEEES8_ELb1EEEEE19_M_allocate_bucketsEm+0x82>
  82:	48 8b 5d e0          	mov    -0x20(%rbp),%rbx
  86:	48 8d 45 d7          	lea    -0x29(%rbp),%rax
  8a:	48 89 c7             	mov    %rax,%rdi
  8d:	e8 00 00 00 00       	callq  92 <_ZNSt8__detail16_Hashtable_allocISaINS_10_Hash_nodeISt4pairIKNSt7__cxx1112basic_stringIcSt11char_traitsIcESaIcEEES8_ELb1EEEEE19_M_allocate_bucketsEm+0x92>
  92:	48 89 d8             	mov    %rbx,%rax
  95:	48 8b 4d e8          	mov    -0x18(%rbp),%rcx
  99:	64 48 33 0c 25 28 00 	xor    %fs:0x28,%rcx
  a0:	00 00 
  a2:	74 21                	je     c5 <_ZNSt8__detail16_Hashtable_allocISaINS_10_Hash_nodeISt4pairIKNSt7__cxx1112basic_stringIcSt11char_traitsIcESaIcEEES8_ELb1EEEEE19_M_allocate_bucketsEm+0xc5>
  a4:	eb 1a                	jmp    c0 <_ZNSt8__detail16_Hashtable_allocISaINS_10_Hash_nodeISt4pairIKNSt7__cxx1112basic_stringIcSt11char_traitsIcESaIcEEES8_ELb1EEEEE19_M_allocate_bucketsEm+0xc0>
  a6:	48 89 c3             	mov    %rax,%rbx
  a9:	48 8d 45 d7          	lea    -0x29(%rbp),%rax
  ad:	48 89 c7             	mov    %rax,%rdi
  b0:	e8 00 00 00 00       	callq  b5 <_ZNSt8__detail16_Hashtable_allocISaINS_10_Hash_nodeISt4pairIKNSt7__cxx1112basic_stringIcSt11char_traitsIcESaIcEEES8_ELb1EEEEE19_M_allocate_bucketsEm+0xb5>
  b5:	48 89 d8             	mov    %rbx,%rax
  b8:	48 89 c7             	mov    %rax,%rdi
  bb:	e8 00 00 00 00       	callq  c0 <_ZNSt8__detail16_Hashtable_allocISaINS_10_Hash_nodeISt4pairIKNSt7__cxx1112basic_stringIcSt11char_traitsIcESaIcEEES8_ELb1EEEEE19_M_allocate_bucketsEm+0xc0>
  c0:	e8 00 00 00 00       	callq  c5 <_ZNSt8__detail16_Hashtable_allocISaINS_10_Hash_nodeISt4pairIKNSt7__cxx1112basic_stringIcSt11char_traitsIcESaIcEEES8_ELb1EEEEE19_M_allocate_bucketsEm+0xc5>
  c5:	48 83 c4 38          	add    $0x38,%rsp
  c9:	5b                   	pop    %rbx
  ca:	5d                   	pop    %rbp
  cb:	c3                   	retq   

Disassembly of section .text._ZNSt8__detail12_Insert_baseINSt7__cxx1112basic_stringIcSt11char_traitsIcESaIcEEESt4pairIKS6_S6_ESaIS9_ENS_10_Select1stESt8equal_toIS6_ESt4hashIS6_ENS_18_Mod_range_hashingENS_20_Default_ranged_hashENS_20_Prime_rehash_policyENS_17_Hashtable_traitsILb1ELb0ELb1EEEE20_M_conjure_hashtableEv:

0000000000000000 <_ZNSt8__detail12_Insert_baseINSt7__cxx1112basic_stringIcSt11char_traitsIcESaIcEEESt4pairIKS6_S6_ESaIS9_ENS_10_Select1stESt8equal_toIS6_ESt4hashIS6_ENS_18_Mod_range_hashingENS_20_Default_ranged_hashENS_20_Prime_rehash_policyENS_17_Hashtable_traitsILb1ELb0ELb1EEEE20_M_conjure_hashtableEv>:
   0:	55                   	push   %rbp
   1:	48 89 e5             	mov    %rsp,%rbp
   4:	48 89 7d f8          	mov    %rdi,-0x8(%rbp)
   8:	48 8b 45 f8          	mov    -0x8(%rbp),%rax
   c:	5d                   	pop    %rbp
   d:	c3                   	retq   

Disassembly of section .text._ZNSt8__detail10_AllocNodeISaINS_10_Hash_nodeISt4pairIKNSt7__cxx1112basic_stringIcSt11char_traitsIcESaIcEEES8_ELb1EEEEEC2ERNS_16_Hashtable_allocISC_EE:

0000000000000000 <_ZNSt8__detail10_AllocNodeISaINS_10_Hash_nodeISt4pairIKNSt7__cxx1112basic_stringIcSt11char_traitsIcESaIcEEES8_ELb1EEEEEC1ERNS_16_Hashtable_allocISC_EE>:
   0:	55                   	push   %rbp
   1:	48 89 e5             	mov    %rsp,%rbp
   4:	48 89 7d f8          	mov    %rdi,-0x8(%rbp)
   8:	48 89 75 f0          	mov    %rsi,-0x10(%rbp)
   c:	48 8b 45 f8          	mov    -0x8(%rbp),%rax
  10:	48 8b 55 f0          	mov    -0x10(%rbp),%rdx
  14:	48 89 10             	mov    %rdx,(%rax)
  17:	90                   	nop
  18:	5d                   	pop    %rbp
  19:	c3                   	retq   

Disassembly of section .text._ZSt7forwardIRKSt4pairIKNSt7__cxx1112basic_stringIcSt11char_traitsIcESaIcEEES6_EEOT_RNSt16remove_referenceISB_E4typeE:

0000000000000000 <_ZSt7forwardIRKSt4pairIKNSt7__cxx1112basic_stringIcSt11char_traitsIcESaIcEEES6_EEOT_RNSt16remove_referenceISB_E4typeE>:
   0:	55                   	push   %rbp
   1:	48 89 e5             	mov    %rsp,%rbp
   4:	48 89 7d f8          	mov    %rdi,-0x8(%rbp)
   8:	48 8b 45 f8          	mov    -0x8(%rbp),%rax
   c:	5d                   	pop    %rbp
   d:	c3                   	retq   

Disassembly of section .text._ZNSt10_HashtableINSt7__cxx1112basic_stringIcSt11char_traitsIcESaIcEEESt4pairIKS5_S5_ESaIS8_ENSt8__detail10_Select1stESt8equal_toIS5_ESt4hashIS5_ENSA_18_Mod_range_hashingENSA_20_Default_ranged_hashENSA_20_Prime_rehash_policyENSA_17_Hashtable_traitsILb1ELb0ELb1EEEE9_M_insertIRKS8_NSA_10_AllocNodeISaINSA_10_Hash_nodeIS8_Lb1EEEEEEEES6_INSA_14_Node_iteratorIS8_Lb0ELb1EEEbEOT_RKT0_St17integral_constantIbLb1EE:

0000000000000000 <_ZNSt10_HashtableINSt7__cxx1112basic_stringIcSt11char_traitsIcESaIcEEESt4pairIKS5_S5_ESaIS8_ENSt8__detail10_Select1stESt8equal_toIS5_ESt4hashIS5_ENSA_18_Mod_range_hashingENSA_20_Default_ranged_hashENSA_20_Prime_rehash_policyENSA_17_Hashtable_traitsILb1ELb0ELb1EEEE9_M_insertIRKS8_NSA_10_AllocNodeISaINSA_10_Hash_nodeIS8_Lb1EEEEEEEES6_INSA_14_Node_iteratorIS8_Lb0ELb1EEEbEOT_RKT0_St17integral_constantIbLb1EE>:
   0:	55                   	push   %rbp
   1:	48 89 e5             	mov    %rsp,%rbp
   4:	48 83 ec 60          	sub    $0x60,%rsp
   8:	48 89 7d b8          	mov    %rdi,-0x48(%rbp)
   c:	48 89 75 b0          	mov    %rsi,-0x50(%rbp)
  10:	48 89 55 a8          	mov    %rdx,-0x58(%rbp)
  14:	64 48 8b 04 25 28 00 	mov    %fs:0x28,%rax
  1b:	00 00 
  1d:	48 89 45 f8          	mov    %rax,-0x8(%rbp)
  21:	31 c0                	xor    %eax,%eax
  23:	48 8b 45 b8          	mov    -0x48(%rbp),%rax
  27:	48 89 c7             	mov    %rax,%rdi
  2a:	e8 00 00 00 00       	callq  2f <_ZNSt10_HashtableINSt7__cxx1112basic_stringIcSt11char_traitsIcESaIcEEESt4pairIKS5_S5_ESaIS8_ENSt8__detail10_Select1stESt8equal_toIS5_ESt4hashIS5_ENSA_18_Mod_range_hashingENSA_20_Default_ranged_hashENSA_20_Prime_rehash_policyENSA_17_Hashtable_traitsILb1ELb0ELb1EEEE9_M_insertIRKS8_NSA_10_AllocNodeISaINSA_10_Hash_nodeIS8_Lb1EEEEEEEES6_INSA_14_Node_iteratorIS8_Lb0ELb1EEEbEOT_RKT0_St17integral_constantIbLb1EE+0x2f>
  2f:	48 89 c2             	mov    %rax,%rdx
  32:	48 8b 45 b0          	mov    -0x50(%rbp),%rax
  36:	48 89 c6             	mov    %rax,%rsi
  39:	48 89 d7             	mov    %rdx,%rdi
  3c:	e8 00 00 00 00       	callq  41 <_ZNSt10_HashtableINSt7__cxx1112basic_stringIcSt11char_traitsIcESaIcEEESt4pairIKS5_S5_ESaIS8_ENSt8__detail10_Select1stESt8equal_toIS5_ESt4hashIS5_ENSA_18_Mod_range_hashingENSA_20_Default_ranged_hashENSA_20_Prime_rehash_policyENSA_17_Hashtable_traitsILb1ELb0ELb1EEEE9_M_insertIRKS8_NSA_10_AllocNodeISaINSA_10_Hash_nodeIS8_Lb1EEEEEEEES6_INSA_14_Node_iteratorIS8_Lb0ELb1EEEbEOT_RKT0_St17integral_constantIbLb1EE+0x41>
  41:	48 89 45 d8          	mov    %rax,-0x28(%rbp)
  45:	48 8b 55 d8          	mov    -0x28(%rbp),%rdx
  49:	48 8b 45 b8          	mov    -0x48(%rbp),%rax
  4d:	48 89 d6             	mov    %rdx,%rsi
  50:	48 89 c7             	mov    %rax,%rdi
  53:	e8 00 00 00 00       	callq  58 <_ZNSt10_HashtableINSt7__cxx1112basic_stringIcSt11char_traitsIcESaIcEEESt4pairIKS5_S5_ESaIS8_ENSt8__detail10_Select1stESt8equal_toIS5_ESt4hashIS5_ENSA_18_Mod_range_hashingENSA_20_Default_ranged_hashENSA_20_Prime_rehash_policyENSA_17_Hashtable_traitsILb1ELb0ELb1EEEE9_M_insertIRKS8_NSA_10_AllocNodeISaINSA_10_Hash_nodeIS8_Lb1EEEEEEEES6_INSA_14_Node_iteratorIS8_Lb0ELb1EEEbEOT_RKT0_St17integral_constantIbLb1EE+0x58>
  58:	48 89 45 e0          	mov    %rax,-0x20(%rbp)
  5c:	48 8b 55 e0          	mov    -0x20(%rbp),%rdx
  60:	48 8b 4d d8          	mov    -0x28(%rbp),%rcx
  64:	48 8b 45 b8          	mov    -0x48(%rbp),%rax
  68:	48 89 ce             	mov    %rcx,%rsi
  6b:	48 89 c7             	mov    %rax,%rdi
  6e:	e8 00 00 00 00       	callq  73 <_ZNSt10_HashtableINSt7__cxx1112basic_stringIcSt11char_traitsIcESaIcEEESt4pairIKS5_S5_ESaIS8_ENSt8__detail10_Select1stESt8equal_toIS5_ESt4hashIS5_ENSA_18_Mod_range_hashingENSA_20_Default_ranged_hashENSA_20_Prime_rehash_policyENSA_17_Hashtable_traitsILb1ELb0ELb1EEEE9_M_insertIRKS8_NSA_10_AllocNodeISaINSA_10_Hash_nodeIS8_Lb1EEEEEEEES6_INSA_14_Node_iteratorIS8_Lb0ELb1EEEbEOT_RKT0_St17integral_constantIbLb1EE+0x73>
  73:	48 89 45 e8          	mov    %rax,-0x18(%rbp)
  77:	48 8b 4d e0          	mov    -0x20(%rbp),%rcx
  7b:	48 8b 55 d8          	mov    -0x28(%rbp),%rdx
  7f:	48 8b 75 e8          	mov    -0x18(%rbp),%rsi
  83:	48 8b 45 b8          	mov    -0x48(%rbp),%rax
  87:	48 89 c7             	mov    %rax,%rdi
  8a:	e8 00 00 00 00       	callq  8f <_ZNSt10_HashtableINSt7__cxx1112basic_stringIcSt11char_traitsIcESaIcEEESt4pairIKS5_S5_ESaIS8_ENSt8__detail10_Select1stESt8equal_toIS5_ESt4hashIS5_ENSA_18_Mod_range_hashingENSA_20_Default_ranged_hashENSA_20_Prime_rehash_policyENSA_17_Hashtable_traitsILb1ELb0ELb1EEEE9_M_insertIRKS8_NSA_10_AllocNodeISaINSA_10_Hash_nodeIS8_Lb1EEEEEEEES6_INSA_14_Node_iteratorIS8_Lb0ELb1EEEbEOT_RKT0_St17integral_constantIbLb1EE+0x8f>
  8f:	48 89 45 f0          	mov    %rax,-0x10(%rbp)
  93:	48 83 7d f0 00       	cmpq   $0x0,-0x10(%rbp)
  98:	74 2c                	je     c6 <_ZNSt10_HashtableINSt7__cxx1112basic_stringIcSt11char_traitsIcESaIcEEESt4pairIKS5_S5_ESaIS8_ENSt8__detail10_Select1stESt8equal_toIS5_ESt4hashIS5_ENSA_18_Mod_range_hashingENSA_20_Default_ranged_hashENSA_20_Prime_rehash_policyENSA_17_Hashtable_traitsILb1ELb0ELb1EEEE9_M_insertIRKS8_NSA_10_AllocNodeISaINSA_10_Hash_nodeIS8_Lb1EEEEEEEES6_INSA_14_Node_iteratorIS8_Lb0ELb1EEEbEOT_RKT0_St17integral_constantIbLb1EE+0xc6>
  9a:	c6 45 cf 00          	movb   $0x0,-0x31(%rbp)
  9e:	48 8b 55 f0          	mov    -0x10(%rbp),%rdx
  a2:	48 8d 45 d0          	lea    -0x30(%rbp),%rax
  a6:	48 89 d6             	mov    %rdx,%rsi
  a9:	48 89 c7             	mov    %rax,%rdi
  ac:	e8 00 00 00 00       	callq  b1 <_ZNSt10_HashtableINSt7__cxx1112basic_stringIcSt11char_traitsIcESaIcEEESt4pairIKS5_S5_ESaIS8_ENSt8__detail10_Select1stESt8equal_toIS5_ESt4hashIS5_ENSA_18_Mod_range_hashingENSA_20_Default_ranged_hashENSA_20_Prime_rehash_policyENSA_17_Hashtable_traitsILb1ELb0ELb1EEEE9_M_insertIRKS8_NSA_10_AllocNodeISaINSA_10_Hash_nodeIS8_Lb1EEEEEEEES6_INSA_14_Node_iteratorIS8_Lb0ELb1EEEbEOT_RKT0_St17integral_constantIbLb1EE+0xb1>
  b1:	48 8d 55 cf          	lea    -0x31(%rbp),%rdx
  b5:	48 8d 45 d0          	lea    -0x30(%rbp),%rax
  b9:	48 89 d6             	mov    %rdx,%rsi
  bc:	48 89 c7             	mov    %rax,%rdi
  bf:	e8 00 00 00 00       	callq  c4 <_ZNSt10_HashtableINSt7__cxx1112basic_stringIcSt11char_traitsIcESaIcEEESt4pairIKS5_S5_ESaIS8_ENSt8__detail10_Select1stESt8equal_toIS5_ESt4hashIS5_ENSA_18_Mod_range_hashingENSA_20_Default_ranged_hashENSA_20_Prime_rehash_policyENSA_17_Hashtable_traitsILb1ELb0ELb1EEEE9_M_insertIRKS8_NSA_10_AllocNodeISaINSA_10_Hash_nodeIS8_Lb1EEEEEEEES6_INSA_14_Node_iteratorIS8_Lb0ELb1EEEbEOT_RKT0_St17integral_constantIbLb1EE+0xc4>
  c4:	eb 55                	jmp    11b <_ZNSt10_HashtableINSt7__cxx1112basic_stringIcSt11char_traitsIcESaIcEEESt4pairIKS5_S5_ESaIS8_ENSt8__detail10_Select1stESt8equal_toIS5_ESt4hashIS5_ENSA_18_Mod_range_hashingENSA_20_Default_ranged_hashENSA_20_Prime_rehash_policyENSA_17_Hashtable_traitsILb1ELb0ELb1EEEE9_M_insertIRKS8_NSA_10_AllocNodeISaINSA_10_Hash_nodeIS8_Lb1EEEEEEEES6_INSA_14_Node_iteratorIS8_Lb0ELb1EEEbEOT_RKT0_St17integral_constantIbLb1EE+0x11b>
  c6:	48 8b 45 b0          	mov    -0x50(%rbp),%rax
  ca:	48 89 c7             	mov    %rax,%rdi
  cd:	e8 00 00 00 00       	callq  d2 <_ZNSt10_HashtableINSt7__cxx1112basic_stringIcSt11char_traitsIcESaIcEEESt4pairIKS5_S5_ESaIS8_ENSt8__detail10_Select1stESt8equal_toIS5_ESt4hashIS5_ENSA_18_Mod_range_hashingENSA_20_Default_ranged_hashENSA_20_Prime_rehash_policyENSA_17_Hashtable_traitsILb1ELb0ELb1EEEE9_M_insertIRKS8_NSA_10_AllocNodeISaINSA_10_Hash_nodeIS8_Lb1EEEEEEEES6_INSA_14_Node_iteratorIS8_Lb0ELb1EEEbEOT_RKT0_St17integral_constantIbLb1EE+0xd2>
  d2:	48 89 c2             	mov    %rax,%rdx
  d5:	48 8b 45 a8          	mov    -0x58(%rbp),%rax
  d9:	48 89 d6             	mov    %rdx,%rsi
  dc:	48 89 c7             	mov    %rax,%rdi
  df:	e8 00 00 00 00       	callq  e4 <_ZNSt10_HashtableINSt7__cxx1112basic_stringIcSt11char_traitsIcESaIcEEESt4pairIKS5_S5_ESaIS8_ENSt8__detail10_Select1stESt8equal_toIS5_ESt4hashIS5_ENSA_18_Mod_range_hashingENSA_20_Default_ranged_hashENSA_20_Prime_rehash_policyENSA_17_Hashtable_traitsILb1ELb0ELb1EEEE9_M_insertIRKS8_NSA_10_AllocNodeISaINSA_10_Hash_nodeIS8_Lb1EEEEEEEES6_INSA_14_Node_iteratorIS8_Lb0ELb1EEEbEOT_RKT0_St17integral_constantIbLb1EE+0xe4>
  e4:	48 89 45 f0          	mov    %rax,-0x10(%rbp)
  e8:	c6 45 cf 01          	movb   $0x1,-0x31(%rbp)
  ec:	48 8b 4d f0          	mov    -0x10(%rbp),%rcx
  f0:	48 8b 55 e0          	mov    -0x20(%rbp),%rdx
  f4:	48 8b 75 e8          	mov    -0x18(%rbp),%rsi
  f8:	48 8b 45 b8          	mov    -0x48(%rbp),%rax
  fc:	48 89 c7             	mov    %rax,%rdi
  ff:	e8 00 00 00 00       	callq  104 <_ZNSt10_HashtableINSt7__cxx1112basic_stringIcSt11char_traitsIcESaIcEEESt4pairIKS5_S5_ESaIS8_ENSt8__detail10_Select1stESt8equal_toIS5_ESt4hashIS5_ENSA_18_Mod_range_hashingENSA_20_Default_ranged_hashENSA_20_Prime_rehash_policyENSA_17_Hashtable_traitsILb1ELb0ELb1EEEE9_M_insertIRKS8_NSA_10_AllocNodeISaINSA_10_Hash_nodeIS8_Lb1EEEEEEEES6_INSA_14_Node_iteratorIS8_Lb0ELb1EEEbEOT_RKT0_St17integral_constantIbLb1EE+0x104>
 104:	48 89 45 d0          	mov    %rax,-0x30(%rbp)
 108:	48 8d 55 cf          	lea    -0x31(%rbp),%rdx
 10c:	48 8d 45 d0          	lea    -0x30(%rbp),%rax
 110:	48 89 d6             	mov    %rdx,%rsi
 113:	48 89 c7             	mov    %rax,%rdi
 116:	e8 00 00 00 00       	callq  11b <_ZNSt10_HashtableINSt7__cxx1112basic_stringIcSt11char_traitsIcESaIcEEESt4pairIKS5_S5_ESaIS8_ENSt8__detail10_Select1stESt8equal_toIS5_ESt4hashIS5_ENSA_18_Mod_range_hashingENSA_20_Default_ranged_hashENSA_20_Prime_rehash_policyENSA_17_Hashtable_traitsILb1ELb0ELb1EEEE9_M_insertIRKS8_NSA_10_AllocNodeISaINSA_10_Hash_nodeIS8_Lb1EEEEEEEES6_INSA_14_Node_iteratorIS8_Lb0ELb1EEEbEOT_RKT0_St17integral_constantIbLb1EE+0x11b>
 11b:	48 8b 4d f8          	mov    -0x8(%rbp),%rcx
 11f:	64 48 33 0c 25 28 00 	xor    %fs:0x28,%rcx
 126:	00 00 
 128:	74 05                	je     12f <_ZNSt10_HashtableINSt7__cxx1112basic_stringIcSt11char_traitsIcESaIcEEESt4pairIKS5_S5_ESaIS8_ENSt8__detail10_Select1stESt8equal_toIS5_ESt4hashIS5_ENSA_18_Mod_range_hashingENSA_20_Default_ranged_hashENSA_20_Prime_rehash_policyENSA_17_Hashtable_traitsILb1ELb0ELb1EEEE9_M_insertIRKS8_NSA_10_AllocNodeISaINSA_10_Hash_nodeIS8_Lb1EEEEEEEES6_INSA_14_Node_iteratorIS8_Lb0ELb1EEEbEOT_RKT0_St17integral_constantIbLb1EE+0x12f>
 12a:	e8 00 00 00 00       	callq  12f <_ZNSt10_HashtableINSt7__cxx1112basic_stringIcSt11char_traitsIcESaIcEEESt4pairIKS5_S5_ESaIS8_ENSt8__detail10_Select1stESt8equal_toIS5_ESt4hashIS5_ENSA_18_Mod_range_hashingENSA_20_Default_ranged_hashENSA_20_Prime_rehash_policyENSA_17_Hashtable_traitsILb1ELb0ELb1EEEE9_M_insertIRKS8_NSA_10_AllocNodeISaINSA_10_Hash_nodeIS8_Lb1EEEEEEEES6_INSA_14_Node_iteratorIS8_Lb0ELb1EEEbEOT_RKT0_St17integral_constantIbLb1EE+0x12f>
 12f:	c9                   	leaveq 
 130:	c3                   	retq   

Disassembly of section .text._ZNSt14pointer_traitsIPNSt8__detail10_Hash_nodeISt4pairIKNSt7__cxx1112basic_stringIcSt11char_traitsIcESaIcEEES8_ELb1EEEE10pointer_toERSB_:

0000000000000000 <_ZNSt14pointer_traitsIPNSt8__detail10_Hash_nodeISt4pairIKNSt7__cxx1112basic_stringIcSt11char_traitsIcESaIcEEES8_ELb1EEEE10pointer_toERSB_>:
   0:	55                   	push   %rbp
   1:	48 89 e5             	mov    %rsp,%rbp
   4:	48 83 ec 10          	sub    $0x10,%rsp
   8:	48 89 7d f8          	mov    %rdi,-0x8(%rbp)
   c:	48 8b 45 f8          	mov    -0x8(%rbp),%rax
  10:	48 89 c7             	mov    %rax,%rdi
  13:	e8 00 00 00 00       	callq  18 <_ZNSt14pointer_traitsIPNSt8__detail10_Hash_nodeISt4pairIKNSt7__cxx1112basic_stringIcSt11char_traitsIcESaIcEEES8_ELb1EEEE10pointer_toERSB_+0x18>
  18:	c9                   	leaveq 
  19:	c3                   	retq   

Disassembly of section .text._ZNSt16allocator_traitsISaISt4pairIKNSt7__cxx1112basic_stringIcSt11char_traitsIcESaIcEEES6_EEE7destroyIS8_EEvRS9_PT_:

0000000000000000 <_ZNSt16allocator_traitsISaISt4pairIKNSt7__cxx1112basic_stringIcSt11char_traitsIcESaIcEEES6_EEE7destroyIS8_EEvRS9_PT_>:
   0:	55                   	push   %rbp
   1:	48 89 e5             	mov    %rsp,%rbp
   4:	48 83 ec 10          	sub    $0x10,%rsp
   8:	48 89 7d f8          	mov    %rdi,-0x8(%rbp)
   c:	48 89 75 f0          	mov    %rsi,-0x10(%rbp)
  10:	48 8b 55 f0          	mov    -0x10(%rbp),%rdx
  14:	48 8b 45 f8          	mov    -0x8(%rbp),%rax
  18:	48 89 d6             	mov    %rdx,%rsi
  1b:	48 89 c7             	mov    %rax,%rdi
  1e:	e8 00 00 00 00       	callq  23 <_ZNSt16allocator_traitsISaISt4pairIKNSt7__cxx1112basic_stringIcSt11char_traitsIcESaIcEEES6_EEE7destroyIS8_EEvRS9_PT_+0x23>
  23:	90                   	nop
  24:	c9                   	leaveq 
  25:	c3                   	retq   

Disassembly of section .text._ZNSt14pointer_traitsIPPNSt8__detail15_Hash_node_baseEE10pointer_toERS2_:

0000000000000000 <_ZNSt14pointer_traitsIPPNSt8__detail15_Hash_node_baseEE10pointer_toERS2_>:
   0:	55                   	push   %rbp
   1:	48 89 e5             	mov    %rsp,%rbp
   4:	48 83 ec 10          	sub    $0x10,%rsp
   8:	48 89 7d f8          	mov    %rdi,-0x8(%rbp)
   c:	48 8b 45 f8          	mov    -0x8(%rbp),%rax
  10:	48 89 c7             	mov    %rax,%rdi
  13:	e8 00 00 00 00       	callq  18 <_ZNSt14pointer_traitsIPPNSt8__detail15_Hash_node_baseEE10pointer_toERS2_+0x18>
  18:	c9                   	leaveq 
  19:	c3                   	retq   

Disassembly of section .text._ZNSaIPNSt8__detail15_Hash_node_baseEEC2INS_10_Hash_nodeISt4pairIKNSt7__cxx1112basic_stringIcSt11char_traitsIcESaIcEEESB_ELb1EEEEERKSaIT_E:

0000000000000000 <_ZNSaIPNSt8__detail15_Hash_node_baseEEC1INS_10_Hash_nodeISt4pairIKNSt7__cxx1112basic_stringIcSt11char_traitsIcESaIcEEESB_ELb1EEEEERKSaIT_E>:
   0:	55                   	push   %rbp
   1:	48 89 e5             	mov    %rsp,%rbp
   4:	48 83 ec 10          	sub    $0x10,%rsp
   8:	48 89 7d f8          	mov    %rdi,-0x8(%rbp)
   c:	48 89 75 f0          	mov    %rsi,-0x10(%rbp)
  10:	48 8b 45 f8          	mov    -0x8(%rbp),%rax
  14:	48 89 c7             	mov    %rax,%rdi
  17:	e8 00 00 00 00       	callq  1c <_ZNSaIPNSt8__detail15_Hash_node_baseEEC1INS_10_Hash_nodeISt4pairIKNSt7__cxx1112basic_stringIcSt11char_traitsIcESaIcEEESB_ELb1EEEEERKSaIT_E+0x1c>
  1c:	90                   	nop
  1d:	c9                   	leaveq 
  1e:	c3                   	retq   

Disassembly of section .text._ZNSaIPNSt8__detail15_Hash_node_baseEED2Ev:

0000000000000000 <_ZNSaIPNSt8__detail15_Hash_node_baseEED1Ev>:
   0:	55                   	push   %rbp
   1:	48 89 e5             	mov    %rsp,%rbp
   4:	48 83 ec 10          	sub    $0x10,%rsp
   8:	48 89 7d f8          	mov    %rdi,-0x8(%rbp)
   c:	48 8b 45 f8          	mov    -0x8(%rbp),%rax
  10:	48 89 c7             	mov    %rax,%rdi
  13:	e8 00 00 00 00       	callq  18 <_ZNSaIPNSt8__detail15_Hash_node_baseEED1Ev+0x18>
  18:	90                   	nop
  19:	c9                   	leaveq 
  1a:	c3                   	retq   

Disassembly of section .text._ZNSt16allocator_traitsISaIPNSt8__detail15_Hash_node_baseEEE10deallocateERS3_PS2_m:

0000000000000000 <_ZNSt16allocator_traitsISaIPNSt8__detail15_Hash_node_baseEEE10deallocateERS3_PS2_m>:
   0:	55                   	push   %rbp
   1:	48 89 e5             	mov    %rsp,%rbp
   4:	48 83 ec 20          	sub    $0x20,%rsp
   8:	48 89 7d f8          	mov    %rdi,-0x8(%rbp)
   c:	48 89 75 f0          	mov    %rsi,-0x10(%rbp)
  10:	48 89 55 e8          	mov    %rdx,-0x18(%rbp)
  14:	48 8b 55 e8          	mov    -0x18(%rbp),%rdx
  18:	48 8b 4d f0          	mov    -0x10(%rbp),%rcx
  1c:	48 8b 45 f8          	mov    -0x8(%rbp),%rax
  20:	48 89 ce             	mov    %rcx,%rsi
  23:	48 89 c7             	mov    %rax,%rdi
  26:	e8 00 00 00 00       	callq  2b <_ZNSt16allocator_traitsISaIPNSt8__detail15_Hash_node_baseEEE10deallocateERS3_PS2_m+0x2b>
  2b:	90                   	nop
  2c:	c9                   	leaveq 
  2d:	c3                   	retq   

Disassembly of section .text._ZNSt8__detail21_Hashtable_ebo_helperILi1ESt4hashINSt7__cxx1112basic_stringIcSt11char_traitsIcESaIcEEEELb1EE7_S_cgetERKS9_:

0000000000000000 <_ZNSt8__detail21_Hashtable_ebo_helperILi1ESt4hashINSt7__cxx1112basic_stringIcSt11char_traitsIcESaIcEEEELb1EE7_S_cgetERKS9_>:
   0:	55                   	push   %rbp
   1:	48 89 e5             	mov    %rsp,%rbp
   4:	48 89 7d f8          	mov    %rdi,-0x8(%rbp)
   8:	48 8b 45 f8          	mov    -0x8(%rbp),%rax
   c:	5d                   	pop    %rbp
   d:	c3                   	retq   

Disassembly of section .text._ZNKSt8__detail15_Hash_code_baseINSt7__cxx1112basic_stringIcSt11char_traitsIcESaIcEEESt4pairIKS6_S6_ENS_10_Select1stESt4hashIS6_ENS_18_Mod_range_hashingENS_20_Default_ranged_hashELb1EE5_M_h2Ev:

0000000000000000 <_ZNKSt8__detail15_Hash_code_baseINSt7__cxx1112basic_stringIcSt11char_traitsIcESaIcEEESt4pairIKS6_S6_ENS_10_Select1stESt4hashIS6_ENS_18_Mod_range_hashingENS_20_Default_ranged_hashELb1EE5_M_h2Ev>:
   0:	55                   	push   %rbp
   1:	48 89 e5             	mov    %rsp,%rbp
   4:	48 83 ec 10          	sub    $0x10,%rsp
   8:	48 89 7d f8          	mov    %rdi,-0x8(%rbp)
   c:	48 8b 45 f8          	mov    -0x8(%rbp),%rax
  10:	48 89 c7             	mov    %rax,%rdi
  13:	e8 00 00 00 00       	callq  18 <_ZNKSt8__detail15_Hash_code_baseINSt7__cxx1112basic_stringIcSt11char_traitsIcESaIcEEESt4pairIKS6_S6_ENS_10_Select1stESt4hashIS6_ENS_18_Mod_range_hashingENS_20_Default_ranged_hashELb1EE5_M_h2Ev+0x18>
  18:	c9                   	leaveq 
  19:	c3                   	retq   

Disassembly of section .text._ZNKSt8__detail15_Hashtable_baseINSt7__cxx1112basic_stringIcSt11char_traitsIcESaIcEEESt4pairIKS6_S6_ENS_10_Select1stESt8equal_toIS6_ESt4hashIS6_ENS_18_Mod_range_hashingENS_20_Default_ranged_hashENS_17_Hashtable_traitsILb1ELb0ELb1EEEE9_M_equalsERS8_mPNS_10_Hash_nodeIS9_Lb1EEE:

0000000000000000 <_ZNKSt8__detail15_Hashtable_baseINSt7__cxx1112basic_stringIcSt11char_traitsIcESaIcEEESt4pairIKS6_S6_ENS_10_Select1stESt8equal_toIS6_ESt4hashIS6_ENS_18_Mod_range_hashingENS_20_Default_ranged_hashENS_17_Hashtable_traitsILb1ELb0ELb1EEEE9_M_equalsERS8_mPNS_10_Hash_nodeIS9_Lb1EEE>:
   0:	55                   	push   %rbp
   1:	48 89 e5             	mov    %rsp,%rbp
   4:	53                   	push   %rbx
   5:	48 83 ec 28          	sub    $0x28,%rsp
   9:	48 89 7d e8          	mov    %rdi,-0x18(%rbp)
   d:	48 89 75 e0          	mov    %rsi,-0x20(%rbp)
  11:	48 89 55 d8          	mov    %rdx,-0x28(%rbp)
  15:	48 89 4d d0          	mov    %rcx,-0x30(%rbp)
  19:	48 8b 45 e8          	mov    -0x18(%rbp),%rax
  1d:	48 89 c7             	mov    %rax,%rdi
  20:	e8 00 00 00 00       	callq  25 <_ZNKSt8__detail15_Hashtable_baseINSt7__cxx1112basic_stringIcSt11char_traitsIcESaIcEEESt4pairIKS6_S6_ENS_10_Select1stESt8equal_toIS6_ESt4hashIS6_ENS_18_Mod_range_hashingENS_20_Default_ranged_hashENS_17_Hashtable_traitsILb1ELb0ELb1EEEE9_M_equalsERS8_mPNS_10_Hash_nodeIS9_Lb1EEE+0x25>
  25:	48 89 c3             	mov    %rax,%rbx
  28:	48 8b 45 e8          	mov    -0x18(%rbp),%rax
  2c:	48 89 c7             	mov    %rax,%rdi
  2f:	e8 00 00 00 00       	callq  34 <_ZNKSt8__detail15_Hashtable_baseINSt7__cxx1112basic_stringIcSt11char_traitsIcESaIcEEESt4pairIKS6_S6_ENS_10_Select1stESt8equal_toIS6_ESt4hashIS6_ENS_18_Mod_range_hashingENS_20_Default_ranged_hashENS_17_Hashtable_traitsILb1ELb0ELb1EEEE9_M_equalsERS8_mPNS_10_Hash_nodeIS9_Lb1EEE+0x34>
  34:	48 89 c7             	mov    %rax,%rdi
  37:	48 8b 4d d0          	mov    -0x30(%rbp),%rcx
  3b:	48 8b 55 d8          	mov    -0x28(%rbp),%rdx
  3f:	48 8b 45 e0          	mov    -0x20(%rbp),%rax
  43:	49 89 c8             	mov    %rcx,%r8
  46:	48 89 d1             	mov    %rdx,%rcx
  49:	48 89 c2             	mov    %rax,%rdx
  4c:	48 89 de             	mov    %rbx,%rsi
  4f:	e8 00 00 00 00       	callq  54 <_ZNKSt8__detail15_Hashtable_baseINSt7__cxx1112basic_stringIcSt11char_traitsIcESaIcEEESt4pairIKS6_S6_ENS_10_Select1stESt8equal_toIS6_ESt4hashIS6_ENS_18_Mod_range_hashingENS_20_Default_ranged_hashENS_17_Hashtable_traitsILb1ELb0ELb1EEEE9_M_equalsERS8_mPNS_10_Hash_nodeIS9_Lb1EEE+0x54>
  54:	48 83 c4 28          	add    $0x28,%rsp
  58:	5b                   	pop    %rbx
  59:	5d                   	pop    %rbp
  5a:	c3                   	retq   

Disassembly of section .text._ZNKSt10_HashtableINSt7__cxx1112basic_stringIcSt11char_traitsIcESaIcEEESt4pairIKS5_S5_ESaIS8_ENSt8__detail10_Select1stESt8equal_toIS5_ESt4hashIS5_ENSA_18_Mod_range_hashingENSA_20_Default_ranged_hashENSA_20_Prime_rehash_policyENSA_17_Hashtable_traitsILb1ELb0ELb1EEEE15_M_bucket_indexEPNSA_10_Hash_nodeIS8_Lb1EEE:

0000000000000000 <_ZNKSt10_HashtableINSt7__cxx1112basic_stringIcSt11char_traitsIcESaIcEEESt4pairIKS5_S5_ESaIS8_ENSt8__detail10_Select1stESt8equal_toIS5_ESt4hashIS5_ENSA_18_Mod_range_hashingENSA_20_Default_ranged_hashENSA_20_Prime_rehash_policyENSA_17_Hashtable_traitsILb1ELb0ELb1EEEE15_M_bucket_indexEPNSA_10_Hash_nodeIS8_Lb1EEE>:
   0:	55                   	push   %rbp
   1:	48 89 e5             	mov    %rsp,%rbp
   4:	48 83 ec 10          	sub    $0x10,%rsp
   8:	48 89 7d f8          	mov    %rdi,-0x8(%rbp)
   c:	48 89 75 f0          	mov    %rsi,-0x10(%rbp)
  10:	48 8b 45 f8          	mov    -0x8(%rbp),%rax
  14:	48 8b 50 08          	mov    0x8(%rax),%rdx
  18:	48 8b 4d f0          	mov    -0x10(%rbp),%rcx
  1c:	48 8b 45 f8          	mov    -0x8(%rbp),%rax
  20:	48 89 ce             	mov    %rcx,%rsi
  23:	48 89 c7             	mov    %rax,%rdi
  26:	e8 00 00 00 00       	callq  2b <_ZNKSt10_HashtableINSt7__cxx1112basic_stringIcSt11char_traitsIcESaIcEEESt4pairIKS5_S5_ESaIS8_ENSt8__detail10_Select1stESt8equal_toIS5_ESt4hashIS5_ENSA_18_Mod_range_hashingENSA_20_Default_ranged_hashENSA_20_Prime_rehash_policyENSA_17_Hashtable_traitsILb1ELb0ELb1EEEE15_M_bucket_indexEPNSA_10_Hash_nodeIS8_Lb1EEE+0x2b>
  2b:	c9                   	leaveq 
  2c:	c3                   	retq   

Disassembly of section .text._ZNSt8__detail21_Hashtable_ebo_helperILi0ESaINS_10_Hash_nodeISt4pairIKNSt7__cxx1112basic_stringIcSt11char_traitsIcESaIcEEES8_ELb1EEEELb1EE6_S_getERSD_:

0000000000000000 <_ZNSt8__detail21_Hashtable_ebo_helperILi0ESaINS_10_Hash_nodeISt4pairIKNSt7__cxx1112basic_stringIcSt11char_traitsIcESaIcEEES8_ELb1EEEELb1EE6_S_getERSD_>:
   0:	55                   	push   %rbp
   1:	48 89 e5             	mov    %rsp,%rbp
   4:	48 89 7d f8          	mov    %rdi,-0x8(%rbp)
   8:	48 8b 45 f8          	mov    -0x8(%rbp),%rax
   c:	5d                   	pop    %rbp
   d:	c3                   	retq   

Disassembly of section .text._ZN9__gnu_cxx13new_allocatorINSt8__detail10_Hash_nodeISt4pairIKNSt7__cxx1112basic_stringIcSt11char_traitsIcESaIcEEES9_ELb1EEEE8allocateEmPKv:

0000000000000000 <_ZN9__gnu_cxx13new_allocatorINSt8__detail10_Hash_nodeISt4pairIKNSt7__cxx1112basic_stringIcSt11char_traitsIcESaIcEEES9_ELb1EEEE8allocateEmPKv>:
   0:	55                   	push   %rbp
   1:	48 89 e5             	mov    %rsp,%rbp
   4:	48 83 ec 20          	sub    $0x20,%rsp
   8:	48 89 7d f8          	mov    %rdi,-0x8(%rbp)
   c:	48 89 75 f0          	mov    %rsi,-0x10(%rbp)
  10:	48 89 55 e8          	mov    %rdx,-0x18(%rbp)
  14:	48 8b 45 f8          	mov    -0x8(%rbp),%rax
  18:	48 89 c7             	mov    %rax,%rdi
  1b:	e8 00 00 00 00       	callq  20 <_ZN9__gnu_cxx13new_allocatorINSt8__detail10_Hash_nodeISt4pairIKNSt7__cxx1112basic_stringIcSt11char_traitsIcESaIcEEES9_ELb1EEEE8allocateEmPKv+0x20>
  20:	48 39 45 f0          	cmp    %rax,-0x10(%rbp)
  24:	0f 97 c0             	seta   %al
  27:	84 c0                	test   %al,%al
  29:	74 05                	je     30 <_ZN9__gnu_cxx13new_allocatorINSt8__detail10_Hash_nodeISt4pairIKNSt7__cxx1112basic_stringIcSt11char_traitsIcESaIcEEES9_ELb1EEEE8allocateEmPKv+0x30>
  2b:	e8 00 00 00 00       	callq  30 <_ZN9__gnu_cxx13new_allocatorINSt8__detail10_Hash_nodeISt4pairIKNSt7__cxx1112basic_stringIcSt11char_traitsIcESaIcEEES9_ELb1EEEE8allocateEmPKv+0x30>
  30:	48 8b 55 f0          	mov    -0x10(%rbp),%rdx
  34:	48 89 d0             	mov    %rdx,%rax
  37:	48 c1 e0 02          	shl    $0x2,%rax
  3b:	48 01 d0             	add    %rdx,%rax
  3e:	48 c1 e0 04          	shl    $0x4,%rax
  42:	48 89 c7             	mov    %rax,%rdi
  45:	e8 00 00 00 00       	callq  4a <_ZN9__gnu_cxx13new_allocatorINSt8__detail10_Hash_nodeISt4pairIKNSt7__cxx1112basic_stringIcSt11char_traitsIcESaIcEEES9_ELb1EEEE8allocateEmPKv+0x4a>
  4a:	c9                   	leaveq 
  4b:	c3                   	retq   

Disassembly of section .text._ZN9__gnu_cxx16__aligned_bufferISt4pairIKNSt7__cxx1112basic_stringIcSt11char_traitsIcESaIcEEES7_EE6_M_ptrEv:

0000000000000000 <_ZN9__gnu_cxx16__aligned_bufferISt4pairIKNSt7__cxx1112basic_stringIcSt11char_traitsIcESaIcEEES7_EE6_M_ptrEv>:
   0:	55                   	push   %rbp
   1:	48 89 e5             	mov    %rsp,%rbp
   4:	48 83 ec 10          	sub    $0x10,%rsp
   8:	48 89 7d f8          	mov    %rdi,-0x8(%rbp)
   c:	48 8b 45 f8          	mov    -0x8(%rbp),%rax
  10:	48 89 c7             	mov    %rax,%rdi
  13:	e8 00 00 00 00       	callq  18 <_ZN9__gnu_cxx16__aligned_bufferISt4pairIKNSt7__cxx1112basic_stringIcSt11char_traitsIcESaIcEEES7_EE6_M_ptrEv+0x18>
  18:	c9                   	leaveq 
  19:	c3                   	retq   

Disassembly of section .text._ZNSt5tupleIJRKNSt7__cxx1112basic_stringIcSt11char_traitsIcESaIcEEEEEC2EOS8_:

0000000000000000 <_ZNSt5tupleIJRKNSt7__cxx1112basic_stringIcSt11char_traitsIcESaIcEEEEEC1EOS8_>:
   0:	55                   	push   %rbp
   1:	48 89 e5             	mov    %rsp,%rbp
   4:	48 83 ec 10          	sub    $0x10,%rsp
   8:	48 89 7d f8          	mov    %rdi,-0x8(%rbp)
   c:	48 89 75 f0          	mov    %rsi,-0x10(%rbp)
  10:	48 8b 45 f8          	mov    -0x8(%rbp),%rax
  14:	48 8b 55 f0          	mov    -0x10(%rbp),%rdx
  18:	48 89 d6             	mov    %rdx,%rsi
  1b:	48 89 c7             	mov    %rax,%rdi
  1e:	e8 00 00 00 00       	callq  23 <_ZNSt5tupleIJRKNSt7__cxx1112basic_stringIcSt11char_traitsIcESaIcEEEEEC1EOS8_+0x23>
  23:	90                   	nop
  24:	c9                   	leaveq 
  25:	c3                   	retq   

Disassembly of section .text._ZN9__gnu_cxx13new_allocatorISt4pairIKNSt7__cxx1112basic_stringIcSt11char_traitsIcESaIcEEES7_EE9constructIS9_JRKSt21piecewise_construct_tSt5tupleIJRS8_EESF_IJEEEEEvPT_DpOT0_:

0000000000000000 <_ZN9__gnu_cxx13new_allocatorISt4pairIKNSt7__cxx1112basic_stringIcSt11char_traitsIcESaIcEEES7_EE9constructIS9_JRKSt21piecewise_construct_tSt5tupleIJRS8_EESF_IJEEEEEvPT_DpOT0_>:
   0:	55                   	push   %rbp
   1:	48 89 e5             	mov    %rsp,%rbp
   4:	41 55                	push   %r13
   6:	41 54                	push   %r12
   8:	53                   	push   %rbx
   9:	48 83 ec 58          	sub    $0x58,%rsp
   d:	48 89 7d b8          	mov    %rdi,-0x48(%rbp)
  11:	48 89 75 b0          	mov    %rsi,-0x50(%rbp)
  15:	48 89 55 a8          	mov    %rdx,-0x58(%rbp)
  19:	48 89 4d a0          	mov    %rcx,-0x60(%rbp)
  1d:	4c 89 45 98          	mov    %r8,-0x68(%rbp)
  21:	64 48 8b 04 25 28 00 	mov    %fs:0x28,%rax
  28:	00 00 
  2a:	48 89 45 d8          	mov    %rax,-0x28(%rbp)
  2e:	31 c0                	xor    %eax,%eax
  30:	48 8b 45 a8          	mov    -0x58(%rbp),%rax
  34:	48 89 c7             	mov    %rax,%rdi
  37:	e8 00 00 00 00       	callq  3c <_ZN9__gnu_cxx13new_allocatorISt4pairIKNSt7__cxx1112basic_stringIcSt11char_traitsIcESaIcEEES7_EE9constructIS9_JRKSt21piecewise_construct_tSt5tupleIJRS8_EESF_IJEEEEEvPT_DpOT0_+0x3c>
  3c:	48 8b 45 a0          	mov    -0x60(%rbp),%rax
  40:	48 89 c7             	mov    %rax,%rdi
  43:	e8 00 00 00 00       	callq  48 <_ZN9__gnu_cxx13new_allocatorISt4pairIKNSt7__cxx1112basic_stringIcSt11char_traitsIcESaIcEEES7_EE9constructIS9_JRKSt21piecewise_construct_tSt5tupleIJRS8_EESF_IJEEEEEvPT_DpOT0_+0x48>
  48:	48 89 c2             	mov    %rax,%rdx
  4b:	48 8d 45 d0          	lea    -0x30(%rbp),%rax
  4f:	48 89 d6             	mov    %rdx,%rsi
  52:	48 89 c7             	mov    %rax,%rdi
  55:	e8 00 00 00 00       	callq  5a <_ZN9__gnu_cxx13new_allocatorISt4pairIKNSt7__cxx1112basic_stringIcSt11char_traitsIcESaIcEEES7_EE9constructIS9_JRKSt21piecewise_construct_tSt5tupleIJRS8_EESF_IJEEEEEvPT_DpOT0_+0x5a>
  5a:	4c 8d 6d d0          	lea    -0x30(%rbp),%r13
  5e:	48 8b 45 98          	mov    -0x68(%rbp),%rax
  62:	48 89 c7             	mov    %rax,%rdi
  65:	e8 00 00 00 00       	callq  6a <_ZN9__gnu_cxx13new_allocatorISt4pairIKNSt7__cxx1112basic_stringIcSt11char_traitsIcESaIcEEES7_EE9constructIS9_JRKSt21piecewise_construct_tSt5tupleIJRS8_EESF_IJEEEEEvPT_DpOT0_+0x6a>
  6a:	4c 8b 65 b0          	mov    -0x50(%rbp),%r12
  6e:	4c 89 e6             	mov    %r12,%rsi
  71:	bf 40 00 00 00       	mov    $0x40,%edi
  76:	e8 00 00 00 00       	callq  7b <_ZN9__gnu_cxx13new_allocatorISt4pairIKNSt7__cxx1112basic_stringIcSt11char_traitsIcESaIcEEES7_EE9constructIS9_JRKSt21piecewise_construct_tSt5tupleIJRS8_EESF_IJEEEEEvPT_DpOT0_+0x7b>
  7b:	48 89 c3             	mov    %rax,%rbx
  7e:	48 85 db             	test   %rbx,%rbx
  81:	74 34                	je     b7 <_ZN9__gnu_cxx13new_allocatorISt4pairIKNSt7__cxx1112basic_stringIcSt11char_traitsIcESaIcEEES7_EE9constructIS9_JRKSt21piecewise_construct_tSt5tupleIJRS8_EESF_IJEEEEEvPT_DpOT0_+0xb7>
  83:	0f b6 45 cf          	movzbl -0x31(%rbp),%eax
  87:	50                   	push   %rax
  88:	0f b6 45 ce          	movzbl -0x32(%rbp),%eax
  8c:	50                   	push   %rax
  8d:	4c 89 ee             	mov    %r13,%rsi
  90:	48 89 df             	mov    %rbx,%rdi
  93:	e8 00 00 00 00       	callq  98 <_ZN9__gnu_cxx13new_allocatorISt4pairIKNSt7__cxx1112basic_stringIcSt11char_traitsIcESaIcEEES7_EE9constructIS9_JRKSt21piecewise_construct_tSt5tupleIJRS8_EESF_IJEEEEEvPT_DpOT0_+0x98>
  98:	48 83 c4 10          	add    $0x10,%rsp
  9c:	eb 19                	jmp    b7 <_ZN9__gnu_cxx13new_allocatorISt4pairIKNSt7__cxx1112basic_stringIcSt11char_traitsIcESaIcEEES7_EE9constructIS9_JRKSt21piecewise_construct_tSt5tupleIJRS8_EESF_IJEEEEEvPT_DpOT0_+0xb7>
  9e:	49 89 c5             	mov    %rax,%r13
  a1:	4c 89 e6             	mov    %r12,%rsi
  a4:	48 89 df             	mov    %rbx,%rdi
  a7:	e8 00 00 00 00       	callq  ac <_ZN9__gnu_cxx13new_allocatorISt4pairIKNSt7__cxx1112basic_stringIcSt11char_traitsIcESaIcEEES7_EE9constructIS9_JRKSt21piecewise_construct_tSt5tupleIJRS8_EESF_IJEEEEEvPT_DpOT0_+0xac>
  ac:	4c 89 e8             	mov    %r13,%rax
  af:	48 89 c7             	mov    %rax,%rdi
  b2:	e8 00 00 00 00       	callq  b7 <_ZN9__gnu_cxx13new_allocatorISt4pairIKNSt7__cxx1112basic_stringIcSt11char_traitsIcESaIcEEES7_EE9constructIS9_JRKSt21piecewise_construct_tSt5tupleIJRS8_EESF_IJEEEEEvPT_DpOT0_+0xb7>
  b7:	90                   	nop
  b8:	48 8b 45 d8          	mov    -0x28(%rbp),%rax
  bc:	64 48 33 04 25 28 00 	xor    %fs:0x28,%rax
  c3:	00 00 
  c5:	74 05                	je     cc <_ZN9__gnu_cxx13new_allocatorISt4pairIKNSt7__cxx1112basic_stringIcSt11char_traitsIcESaIcEEES7_EE9constructIS9_JRKSt21piecewise_construct_tSt5tupleIJRS8_EESF_IJEEEEEvPT_DpOT0_+0xcc>
  c7:	e8 00 00 00 00       	callq  cc <_ZN9__gnu_cxx13new_allocatorISt4pairIKNSt7__cxx1112basic_stringIcSt11char_traitsIcESaIcEEES7_EE9constructIS9_JRKSt21piecewise_construct_tSt5tupleIJRS8_EESF_IJEEEEEvPT_DpOT0_+0xcc>
  cc:	48 8d 65 e8          	lea    -0x18(%rbp),%rsp
  d0:	5b                   	pop    %rbx
  d1:	41 5c                	pop    %r12
  d3:	41 5d                	pop    %r13
  d5:	5d                   	pop    %rbp
  d6:	c3                   	retq   

Disassembly of section .text._ZN9__gnu_cxx13new_allocatorINSt8__detail10_Hash_nodeISt4pairIKNSt7__cxx1112basic_stringIcSt11char_traitsIcESaIcEEES9_ELb1EEEE10deallocateEPSC_m:

0000000000000000 <_ZN9__gnu_cxx13new_allocatorINSt8__detail10_Hash_nodeISt4pairIKNSt7__cxx1112basic_stringIcSt11char_traitsIcESaIcEEES9_ELb1EEEE10deallocateEPSC_m>:
   0:	55                   	push   %rbp
   1:	48 89 e5             	mov    %rsp,%rbp
   4:	48 83 ec 20          	sub    $0x20,%rsp
   8:	48 89 7d f8          	mov    %rdi,-0x8(%rbp)
   c:	48 89 75 f0          	mov    %rsi,-0x10(%rbp)
  10:	48 89 55 e8          	mov    %rdx,-0x18(%rbp)
  14:	48 8b 45 f0          	mov    -0x10(%rbp),%rax
  18:	48 89 c7             	mov    %rax,%rdi
  1b:	e8 00 00 00 00       	callq  20 <_ZN9__gnu_cxx13new_allocatorINSt8__detail10_Hash_nodeISt4pairIKNSt7__cxx1112basic_stringIcSt11char_traitsIcESaIcEEES9_ELb1EEEE10deallocateEPSC_m+0x20>
  20:	90                   	nop
  21:	c9                   	leaveq 
  22:	c3                   	retq   

Disassembly of section .text._ZNSt10_HashtableINSt7__cxx1112basic_stringIcSt11char_traitsIcESaIcEEESt4pairIKS5_S5_ESaIS8_ENSt8__detail10_Select1stESt8equal_toIS5_ESt4hashIS5_ENSA_18_Mod_range_hashingENSA_20_Default_ranged_hashENSA_20_Prime_rehash_policyENSA_17_Hashtable_traitsILb1ELb0ELb1EEEE13_M_rehash_auxEmSt17integral_constantIbLb1EE:

0000000000000000 <_ZNSt10_HashtableINSt7__cxx1112basic_stringIcSt11char_traitsIcESaIcEEESt4pairIKS5_S5_ESaIS8_ENSt8__detail10_Select1stESt8equal_toIS5_ESt4hashIS5_ENSA_18_Mod_range_hashingENSA_20_Default_ranged_hashENSA_20_Prime_rehash_policyENSA_17_Hashtable_traitsILb1ELb0ELb1EEEE13_M_rehash_auxEmSt17integral_constantIbLb1EE>:
   0:	55                   	push   %rbp
   1:	48 89 e5             	mov    %rsp,%rbp
   4:	48 83 ec 40          	sub    $0x40,%rsp
   8:	48 89 7d c8          	mov    %rdi,-0x38(%rbp)
   c:	48 89 75 c0          	mov    %rsi,-0x40(%rbp)
  10:	48 8b 55 c0          	mov    -0x40(%rbp),%rdx
  14:	48 8b 45 c8          	mov    -0x38(%rbp),%rax
  18:	48 89 d6             	mov    %rdx,%rsi
  1b:	48 89 c7             	mov    %rax,%rdi
  1e:	e8 00 00 00 00       	callq  23 <_ZNSt10_HashtableINSt7__cxx1112basic_stringIcSt11char_traitsIcESaIcEEESt4pairIKS5_S5_ESaIS8_ENSt8__detail10_Select1stESt8equal_toIS5_ESt4hashIS5_ENSA_18_Mod_range_hashingENSA_20_Default_ranged_hashENSA_20_Prime_rehash_policyENSA_17_Hashtable_traitsILb1ELb0ELb1EEEE13_M_rehash_auxEmSt17integral_constantIbLb1EE+0x23>
  23:	48 89 45 e8          	mov    %rax,-0x18(%rbp)
  27:	48 8b 45 c8          	mov    -0x38(%rbp),%rax
  2b:	48 89 c7             	mov    %rax,%rdi
  2e:	e8 00 00 00 00       	callq  33 <_ZNSt10_HashtableINSt7__cxx1112basic_stringIcSt11char_traitsIcESaIcEEESt4pairIKS5_S5_ESaIS8_ENSt8__detail10_Select1stESt8equal_toIS5_ESt4hashIS5_ENSA_18_Mod_range_hashingENSA_20_Default_ranged_hashENSA_20_Prime_rehash_policyENSA_17_Hashtable_traitsILb1ELb0ELb1EEEE13_M_rehash_auxEmSt17integral_constantIbLb1EE+0x33>
  33:	48 89 45 d8          	mov    %rax,-0x28(%rbp)
  37:	48 8b 45 c8          	mov    -0x38(%rbp),%rax
  3b:	48 c7 40 10 00 00 00 	movq   $0x0,0x10(%rax)
  42:	00 
  43:	48 c7 45 e0 00 00 00 	movq   $0x0,-0x20(%rbp)
  4a:	00 
  4b:	48 83 7d d8 00       	cmpq   $0x0,-0x28(%rbp)
  50:	0f 84 f9 00 00 00    	je     14f <_ZNSt10_HashtableINSt7__cxx1112basic_stringIcSt11char_traitsIcESaIcEEESt4pairIKS5_S5_ESaIS8_ENSt8__detail10_Select1stESt8equal_toIS5_ESt4hashIS5_ENSA_18_Mod_range_hashingENSA_20_Default_ranged_hashENSA_20_Prime_rehash_policyENSA_17_Hashtable_traitsILb1ELb0ELb1EEEE13_M_rehash_auxEmSt17integral_constantIbLb1EE+0x14f>
  56:	48 8b 45 d8          	mov    -0x28(%rbp),%rax
  5a:	48 89 c7             	mov    %rax,%rdi
  5d:	e8 00 00 00 00       	callq  62 <_ZNSt10_HashtableINSt7__cxx1112basic_stringIcSt11char_traitsIcESaIcEEESt4pairIKS5_S5_ESaIS8_ENSt8__detail10_Select1stESt8equal_toIS5_ESt4hashIS5_ENSA_18_Mod_range_hashingENSA_20_Default_ranged_hashENSA_20_Prime_rehash_policyENSA_17_Hashtable_traitsILb1ELb0ELb1EEEE13_M_rehash_auxEmSt17integral_constantIbLb1EE+0x62>
  62:	48 89 45 f0          	mov    %rax,-0x10(%rbp)
  66:	48 8b 55 c0          	mov    -0x40(%rbp),%rdx
  6a:	48 8b 4d d8          	mov    -0x28(%rbp),%rcx
  6e:	48 8b 45 c8          	mov    -0x38(%rbp),%rax
  72:	48 89 ce             	mov    %rcx,%rsi
  75:	48 89 c7             	mov    %rax,%rdi
  78:	e8 00 00 00 00       	callq  7d <_ZNSt10_HashtableINSt7__cxx1112basic_stringIcSt11char_traitsIcESaIcEEESt4pairIKS5_S5_ESaIS8_ENSt8__detail10_Select1stESt8equal_toIS5_ESt4hashIS5_ENSA_18_Mod_range_hashingENSA_20_Default_ranged_hashENSA_20_Prime_rehash_policyENSA_17_Hashtable_traitsILb1ELb0ELb1EEEE13_M_rehash_auxEmSt17integral_constantIbLb1EE+0x7d>
  7d:	48 89 45 f8          	mov    %rax,-0x8(%rbp)
  81:	48 8b 45 f8          	mov    -0x8(%rbp),%rax
  85:	48 8d 14 c5 00 00 00 	lea    0x0(,%rax,8),%rdx
  8c:	00 
  8d:	48 8b 45 e8          	mov    -0x18(%rbp),%rax
  91:	48 01 d0             	add    %rdx,%rax
  94:	48 8b 00             	mov    (%rax),%rax
  97:	48 85 c0             	test   %rax,%rax
  9a:	75 69                	jne    105 <_ZNSt10_HashtableINSt7__cxx1112basic_stringIcSt11char_traitsIcESaIcEEESt4pairIKS5_S5_ESaIS8_ENSt8__detail10_Select1stESt8equal_toIS5_ESt4hashIS5_ENSA_18_Mod_range_hashingENSA_20_Default_ranged_hashENSA_20_Prime_rehash_policyENSA_17_Hashtable_traitsILb1ELb0ELb1EEEE13_M_rehash_auxEmSt17integral_constantIbLb1EE+0x105>
  9c:	48 8b 45 c8          	mov    -0x38(%rbp),%rax
  a0:	48 8b 50 10          	mov    0x10(%rax),%rdx
  a4:	48 8b 45 d8          	mov    -0x28(%rbp),%rax
  a8:	48 89 10             	mov    %rdx,(%rax)
  ab:	48 8b 45 c8          	mov    -0x38(%rbp),%rax
  af:	48 8b 55 d8          	mov    -0x28(%rbp),%rdx
  b3:	48 89 50 10          	mov    %rdx,0x10(%rax)
  b7:	48 8b 45 f8          	mov    -0x8(%rbp),%rax
  bb:	48 8d 14 c5 00 00 00 	lea    0x0(,%rax,8),%rdx
  c2:	00 
  c3:	48 8b 45 e8          	mov    -0x18(%rbp),%rax
  c7:	48 01 d0             	add    %rdx,%rax
  ca:	48 8b 55 c8          	mov    -0x38(%rbp),%rdx
  ce:	48 83 c2 10          	add    $0x10,%rdx
  d2:	48 89 10             	mov    %rdx,(%rax)
  d5:	48 8b 45 d8          	mov    -0x28(%rbp),%rax
  d9:	48 8b 00             	mov    (%rax),%rax
  dc:	48 85 c0             	test   %rax,%rax
  df:	74 1a                	je     fb <_ZNSt10_HashtableINSt7__cxx1112basic_stringIcSt11char_traitsIcESaIcEEESt4pairIKS5_S5_ESaIS8_ENSt8__detail10_Select1stESt8equal_toIS5_ESt4hashIS5_ENSA_18_Mod_range_hashingENSA_20_Default_ranged_hashENSA_20_Prime_rehash_policyENSA_17_Hashtable_traitsILb1ELb0ELb1EEEE13_M_rehash_auxEmSt17integral_constantIbLb1EE+0xfb>
  e1:	48 8b 45 e0          	mov    -0x20(%rbp),%rax
  e5:	48 8d 14 c5 00 00 00 	lea    0x0(,%rax,8),%rdx
  ec:	00 
  ed:	48 8b 45 e8          	mov    -0x18(%rbp),%rax
  f1:	48 01 c2             	add    %rax,%rdx
  f4:	48 8b 45 d8          	mov    -0x28(%rbp),%rax
  f8:	48 89 02             	mov    %rax,(%rdx)
  fb:	48 8b 45 f8          	mov    -0x8(%rbp),%rax
  ff:	48 89 45 e0          	mov    %rax,-0x20(%rbp)
 103:	eb 3d                	jmp    142 <_ZNSt10_HashtableINSt7__cxx1112basic_stringIcSt11char_traitsIcESaIcEEESt4pairIKS5_S5_ESaIS8_ENSt8__detail10_Select1stESt8equal_toIS5_ESt4hashIS5_ENSA_18_Mod_range_hashingENSA_20_Default_ranged_hashENSA_20_Prime_rehash_policyENSA_17_Hashtable_traitsILb1ELb0ELb1EEEE13_M_rehash_auxEmSt17integral_constantIbLb1EE+0x142>
 105:	48 8b 45 f8          	mov    -0x8(%rbp),%rax
 109:	48 8d 14 c5 00 00 00 	lea    0x0(,%rax,8),%rdx
 110:	00 
 111:	48 8b 45 e8          	mov    -0x18(%rbp),%rax
 115:	48 01 d0             	add    %rdx,%rax
 118:	48 8b 00             	mov    (%rax),%rax
 11b:	48 8b 10             	mov    (%rax),%rdx
 11e:	48 8b 45 d8          	mov    -0x28(%rbp),%rax
 122:	48 89 10             	mov    %rdx,(%rax)
 125:	48 8b 45 f8          	mov    -0x8(%rbp),%rax
 129:	48 8d 14 c5 00 00 00 	lea    0x0(,%rax,8),%rdx
 130:	00 
 131:	48 8b 45 e8          	mov    -0x18(%rbp),%rax
 135:	48 01 d0             	add    %rdx,%rax
 138:	48 8b 00             	mov    (%rax),%rax
 13b:	48 8b 55 d8          	mov    -0x28(%rbp),%rdx
 13f:	48 89 10             	mov    %rdx,(%rax)
 142:	48 8b 45 f0          	mov    -0x10(%rbp),%rax
 146:	48 89 45 d8          	mov    %rax,-0x28(%rbp)
 14a:	e9 fc fe ff ff       	jmpq   4b <_ZNSt10_HashtableINSt7__cxx1112basic_stringIcSt11char_traitsIcESaIcEEESt4pairIKS5_S5_ESaIS8_ENSt8__detail10_Select1stESt8equal_toIS5_ESt4hashIS5_ENSA_18_Mod_range_hashingENSA_20_Default_ranged_hashENSA_20_Prime_rehash_policyENSA_17_Hashtable_traitsILb1ELb0ELb1EEEE13_M_rehash_auxEmSt17integral_constantIbLb1EE+0x4b>
 14f:	48 8b 45 c8          	mov    -0x38(%rbp),%rax
 153:	48 89 c7             	mov    %rax,%rdi
 156:	e8 00 00 00 00       	callq  15b <_ZNSt10_HashtableINSt7__cxx1112basic_stringIcSt11char_traitsIcESaIcEEESt4pairIKS5_S5_ESaIS8_ENSt8__detail10_Select1stESt8equal_toIS5_ESt4hashIS5_ENSA_18_Mod_range_hashingENSA_20_Default_ranged_hashENSA_20_Prime_rehash_policyENSA_17_Hashtable_traitsILb1ELb0ELb1EEEE13_M_rehash_auxEmSt17integral_constantIbLb1EE+0x15b>
 15b:	48 8b 45 c8          	mov    -0x38(%rbp),%rax
 15f:	48 8b 55 c0          	mov    -0x40(%rbp),%rdx
 163:	48 89 50 08          	mov    %rdx,0x8(%rax)
 167:	48 8b 45 c8          	mov    -0x38(%rbp),%rax
 16b:	48 8b 55 e8          	mov    -0x18(%rbp),%rdx
 16f:	48 89 10             	mov    %rdx,(%rax)
 172:	90                   	nop
 173:	c9                   	leaveq 
 174:	c3                   	retq   

Disassembly of section .text._ZNSt8__detail21_Hashtable_ebo_helperILi0ENS_10_Select1stELb1EE6_S_getERS2_:

0000000000000000 <_ZNSt8__detail21_Hashtable_ebo_helperILi0ENS_10_Select1stELb1EE6_S_getERS2_>:
   0:	55                   	push   %rbp
   1:	48 89 e5             	mov    %rsp,%rbp
   4:	48 89 7d f8          	mov    %rdi,-0x8(%rbp)
   8:	48 8b 45 f8          	mov    -0x8(%rbp),%rax
   c:	5d                   	pop    %rbp
   d:	c3                   	retq   

Disassembly of section .text._ZSt3getILm0EKNSt7__cxx1112basic_stringIcSt11char_traitsIcESaIcEEES5_ERNSt13tuple_elementIXT_ESt4pairIT0_T1_EE4typeERSB_:

0000000000000000 <_ZSt3getILm0EKNSt7__cxx1112basic_stringIcSt11char_traitsIcESaIcEEES5_ERNSt13tuple_elementIXT_ESt4pairIT0_T1_EE4typeERSB_>:
   0:	55                   	push   %rbp
   1:	48 89 e5             	mov    %rsp,%rbp
   4:	48 83 ec 10          	sub    $0x10,%rsp
   8:	48 89 7d f8          	mov    %rdi,-0x8(%rbp)
   c:	48 8b 45 f8          	mov    -0x8(%rbp),%rax
  10:	48 89 c7             	mov    %rax,%rdi
  13:	e8 00 00 00 00       	callq  18 <_ZSt3getILm0EKNSt7__cxx1112basic_stringIcSt11char_traitsIcESaIcEEES5_ERNSt13tuple_elementIXT_ESt4pairIT0_T1_EE4typeERSB_+0x18>
  18:	c9                   	leaveq 
  19:	c3                   	retq   

Disassembly of section .text._ZN9__gnu_cxx17__is_null_pointerIcEEbPT_:

0000000000000000 <_ZN9__gnu_cxx17__is_null_pointerIcEEbPT_>:
   0:	55                   	push   %rbp
   1:	48 89 e5             	mov    %rsp,%rbp
   4:	48 89 7d f8          	mov    %rdi,-0x8(%rbp)
   8:	48 83 7d f8 00       	cmpq   $0x0,-0x8(%rbp)
   d:	0f 94 c0             	sete   %al
  10:	5d                   	pop    %rbp
  11:	c3                   	retq   

Disassembly of section .text._ZSt19__iterator_categoryIPcENSt15iterator_traitsIT_E17iterator_categoryERKS2_:

0000000000000000 <_ZSt19__iterator_categoryIPcENSt15iterator_traitsIT_E17iterator_categoryERKS2_>:
   0:	55                   	push   %rbp
   1:	48 89 e5             	mov    %rsp,%rbp
   4:	48 89 7d f8          	mov    %rdi,-0x8(%rbp)
   8:	5d                   	pop    %rbp
   9:	c3                   	retq   

Disassembly of section .text._ZSt8distanceIPcENSt15iterator_traitsIT_E15difference_typeES2_S2_:

0000000000000000 <_ZSt8distanceIPcENSt15iterator_traitsIT_E15difference_typeES2_S2_>:
   0:	55                   	push   %rbp
   1:	48 89 e5             	mov    %rsp,%rbp
   4:	53                   	push   %rbx
   5:	48 83 ec 28          	sub    $0x28,%rsp
   9:	48 89 7d d8          	mov    %rdi,-0x28(%rbp)
   d:	48 89 75 d0          	mov    %rsi,-0x30(%rbp)
  11:	64 48 8b 04 25 28 00 	mov    %fs:0x28,%rax
  18:	00 00 
  1a:	48 89 45 e8          	mov    %rax,-0x18(%rbp)
  1e:	31 c0                	xor    %eax,%eax
  20:	48 8d 45 d8          	lea    -0x28(%rbp),%rax
  24:	48 89 c7             	mov    %rax,%rdi
  27:	e8 00 00 00 00       	callq  2c <_ZSt8distanceIPcENSt15iterator_traitsIT_E15difference_typeES2_S2_+0x2c>
  2c:	48 8b 45 d8          	mov    -0x28(%rbp),%rax
  30:	48 8b 55 d0          	mov    -0x30(%rbp),%rdx
  34:	48 83 ec 08          	sub    $0x8,%rsp
  38:	53                   	push   %rbx
  39:	48 89 d6             	mov    %rdx,%rsi
  3c:	48 89 c7             	mov    %rax,%rdi
  3f:	e8 00 00 00 00       	callq  44 <_ZSt8distanceIPcENSt15iterator_traitsIT_E15difference_typeES2_S2_+0x44>
  44:	48 83 c4 10          	add    $0x10,%rsp
  48:	48 8b 4d e8          	mov    -0x18(%rbp),%rcx
  4c:	64 48 33 0c 25 28 00 	xor    %fs:0x28,%rcx
  53:	00 00 
  55:	74 05                	je     5c <_ZSt8distanceIPcENSt15iterator_traitsIT_E15difference_typeES2_S2_+0x5c>
  57:	e8 00 00 00 00       	callq  5c <_ZSt8distanceIPcENSt15iterator_traitsIT_E15difference_typeES2_S2_+0x5c>
  5c:	48 8b 5d f8          	mov    -0x8(%rbp),%rbx
  60:	c9                   	leaveq 
  61:	c3                   	retq   

Disassembly of section .text._ZNK9__gnu_cxx13new_allocatorI6ClientE8max_sizeEv:

0000000000000000 <_ZNK9__gnu_cxx13new_allocatorI6ClientE8max_sizeEv>:
   0:	55                   	push   %rbp
   1:	48 89 e5             	mov    %rsp,%rbp
   4:	48 89 7d f8          	mov    %rdi,-0x8(%rbp)
   8:	48 b8 66 66 66 66 66 	movabs $0x666666666666666,%rax
   f:	66 66 06 
  12:	5d                   	pop    %rbp
  13:	c3                   	retq   

Disassembly of section .text._ZSt7forwardIRK6ClientEOT_RNSt16remove_referenceIS3_E4typeE:

0000000000000000 <_ZSt7forwardIRK6ClientEOT_RNSt16remove_referenceIS3_E4typeE>:
   0:	55                   	push   %rbp
   1:	48 89 e5             	mov    %rsp,%rbp
   4:	48 89 7d f8          	mov    %rdi,-0x8(%rbp)
   8:	48 8b 45 f8          	mov    -0x8(%rbp),%rax
   c:	5d                   	pop    %rbp
   d:	c3                   	retq   

Disassembly of section .text._ZN6ClientC2ERKS_:

0000000000000000 <_ZN6ClientC1ERKS_>:
   0:	55                   	push   %rbp
   1:	48 89 e5             	mov    %rsp,%rbp
   4:	48 83 ec 10          	sub    $0x10,%rsp
   8:	48 89 7d f8          	mov    %rdi,-0x8(%rbp)
   c:	48 89 75 f0          	mov    %rsi,-0x10(%rbp)
  10:	48 8b 45 f8          	mov    -0x8(%rbp),%rax
  14:	48 8b 55 f0          	mov    -0x10(%rbp),%rdx
  18:	48 89 d6             	mov    %rdx,%rsi
  1b:	48 89 c7             	mov    %rax,%rdi
  1e:	e8 00 00 00 00       	callq  23 <_ZN6ClientC1ERKS_+0x23>
  23:	48 8b 45 f0          	mov    -0x10(%rbp),%rax
  27:	8b 50 20             	mov    0x20(%rax),%edx
  2a:	48 8b 45 f8          	mov    -0x8(%rbp),%rax
  2e:	89 50 20             	mov    %edx,0x20(%rax)
  31:	90                   	nop
  32:	c9                   	leaveq 
  33:	c3                   	retq   

Disassembly of section .text._ZSt10_ConstructI6ClientJRKS0_EEvPT_DpOT0_:

0000000000000000 <_ZSt10_ConstructI6ClientJRKS0_EEvPT_DpOT0_>:
   0:	55                   	push   %rbp
   1:	48 89 e5             	mov    %rsp,%rbp
   4:	41 55                	push   %r13
   6:	41 54                	push   %r12
   8:	53                   	push   %rbx
   9:	48 83 ec 18          	sub    $0x18,%rsp
   d:	48 89 7d d8          	mov    %rdi,-0x28(%rbp)
  11:	48 89 75 d0          	mov    %rsi,-0x30(%rbp)
  15:	48 8b 45 d0          	mov    -0x30(%rbp),%rax
  19:	48 89 c7             	mov    %rax,%rdi
  1c:	e8 00 00 00 00       	callq  21 <_ZSt10_ConstructI6ClientJRKS0_EEvPT_DpOT0_+0x21>
  21:	49 89 c5             	mov    %rax,%r13
  24:	4c 8b 65 d8          	mov    -0x28(%rbp),%r12
  28:	4c 89 e6             	mov    %r12,%rsi
  2b:	bf 28 00 00 00       	mov    $0x28,%edi
  30:	e8 00 00 00 00       	callq  35 <_ZSt10_ConstructI6ClientJRKS0_EEvPT_DpOT0_+0x35>
  35:	48 89 c3             	mov    %rax,%rbx
  38:	48 85 db             	test   %rbx,%rbx
  3b:	74 26                	je     63 <_ZSt10_ConstructI6ClientJRKS0_EEvPT_DpOT0_+0x63>
  3d:	4c 89 ee             	mov    %r13,%rsi
  40:	48 89 df             	mov    %rbx,%rdi
  43:	e8 00 00 00 00       	callq  48 <_ZSt10_ConstructI6ClientJRKS0_EEvPT_DpOT0_+0x48>
  48:	eb 19                	jmp    63 <_ZSt10_ConstructI6ClientJRKS0_EEvPT_DpOT0_+0x63>
  4a:	49 89 c5             	mov    %rax,%r13
  4d:	4c 89 e6             	mov    %r12,%rsi
  50:	48 89 df             	mov    %rbx,%rdi
  53:	e8 00 00 00 00       	callq  58 <_ZSt10_ConstructI6ClientJRKS0_EEvPT_DpOT0_+0x58>
  58:	4c 89 e8             	mov    %r13,%rax
  5b:	48 89 c7             	mov    %rax,%rdi
  5e:	e8 00 00 00 00       	callq  63 <_ZSt10_ConstructI6ClientJRKS0_EEvPT_DpOT0_+0x63>
  63:	90                   	nop
  64:	48 83 c4 18          	add    $0x18,%rsp
  68:	5b                   	pop    %rbx
  69:	41 5c                	pop    %r12
  6b:	41 5d                	pop    %r13
  6d:	5d                   	pop    %rbp
  6e:	c3                   	retq   

Disassembly of section .text._ZN9__gnu_cxx13new_allocatorINSt8__detail10_Hash_nodeISt4pairIKNSt7__cxx1112basic_stringIcSt11char_traitsIcESaIcEEES9_ELb1EEEEC2Ev:

0000000000000000 <_ZN9__gnu_cxx13new_allocatorINSt8__detail10_Hash_nodeISt4pairIKNSt7__cxx1112basic_stringIcSt11char_traitsIcESaIcEEES9_ELb1EEEEC1Ev>:
   0:	55                   	push   %rbp
   1:	48 89 e5             	mov    %rsp,%rbp
   4:	48 89 7d f8          	mov    %rdi,-0x8(%rbp)
   8:	90                   	nop
   9:	5d                   	pop    %rbp
   a:	c3                   	retq   

Disassembly of section .text._ZNSt8__detail15_Hash_code_baseINSt7__cxx1112basic_stringIcSt11char_traitsIcESaIcEEESt4pairIKS6_S6_ENS_10_Select1stESt4hashIS6_ENS_18_Mod_range_hashingENS_20_Default_ranged_hashELb1EEC2ERKSA_RKSC_RKSD_RKSE_:

0000000000000000 <_ZNSt8__detail15_Hash_code_baseINSt7__cxx1112basic_stringIcSt11char_traitsIcESaIcEEESt4pairIKS6_S6_ENS_10_Select1stESt4hashIS6_ENS_18_Mod_range_hashingENS_20_Default_ranged_hashELb1EEC1ERKSA_RKSC_RKSD_RKSE_>:
   0:	55                   	push   %rbp
   1:	48 89 e5             	mov    %rsp,%rbp
   4:	48 83 ec 30          	sub    $0x30,%rsp
   8:	48 89 7d f8          	mov    %rdi,-0x8(%rbp)
   c:	48 89 75 f0          	mov    %rsi,-0x10(%rbp)
  10:	48 89 55 e8          	mov    %rdx,-0x18(%rbp)
  14:	48 89 4d e0          	mov    %rcx,-0x20(%rbp)
  18:	4c 89 45 d8          	mov    %r8,-0x28(%rbp)
  1c:	48 8b 55 f0          	mov    -0x10(%rbp),%rdx
  20:	48 8b 45 f8          	mov    -0x8(%rbp),%rax
  24:	48 89 d6             	mov    %rdx,%rsi
  27:	48 89 c7             	mov    %rax,%rdi
  2a:	e8 00 00 00 00       	callq  2f <_ZNSt8__detail15_Hash_code_baseINSt7__cxx1112basic_stringIcSt11char_traitsIcESaIcEEESt4pairIKS6_S6_ENS_10_Select1stESt4hashIS6_ENS_18_Mod_range_hashingENS_20_Default_ranged_hashELb1EEC1ERKSA_RKSC_RKSD_RKSE_+0x2f>
  2f:	48 8b 55 e8          	mov    -0x18(%rbp),%rdx
  33:	48 8b 45 f8          	mov    -0x8(%rbp),%rax
  37:	48 89 d6             	mov    %rdx,%rsi
  3a:	48 89 c7             	mov    %rax,%rdi
  3d:	e8 00 00 00 00       	callq  42 <_ZNSt8__detail15_Hash_code_baseINSt7__cxx1112basic_stringIcSt11char_traitsIcESaIcEEESt4pairIKS6_S6_ENS_10_Select1stESt4hashIS6_ENS_18_Mod_range_hashingENS_20_Default_ranged_hashELb1EEC1ERKSA_RKSC_RKSD_RKSE_+0x42>
  42:	48 8b 55 e0          	mov    -0x20(%rbp),%rdx
  46:	48 8b 45 f8          	mov    -0x8(%rbp),%rax
  4a:	48 89 d6             	mov    %rdx,%rsi
  4d:	48 89 c7             	mov    %rax,%rdi
  50:	e8 00 00 00 00       	callq  55 <_ZNSt8__detail15_Hash_code_baseINSt7__cxx1112basic_stringIcSt11char_traitsIcESaIcEEESt4pairIKS6_S6_ENS_10_Select1stESt4hashIS6_ENS_18_Mod_range_hashingENS_20_Default_ranged_hashELb1EEC1ERKSA_RKSC_RKSD_RKSE_+0x55>
  55:	90                   	nop
  56:	c9                   	leaveq 
  57:	c3                   	retq   

Disassembly of section .text._ZSt7forwardIRKSt8equal_toINSt7__cxx1112basic_stringIcSt11char_traitsIcESaIcEEEEEOT_RNSt16remove_referenceISA_E4typeE:

0000000000000000 <_ZSt7forwardIRKSt8equal_toINSt7__cxx1112basic_stringIcSt11char_traitsIcESaIcEEEEEOT_RNSt16remove_referenceISA_E4typeE>:
   0:	55                   	push   %rbp
   1:	48 89 e5             	mov    %rsp,%rbp
   4:	48 89 7d f8          	mov    %rdi,-0x8(%rbp)
   8:	48 8b 45 f8          	mov    -0x8(%rbp),%rax
   c:	5d                   	pop    %rbp
   d:	c3                   	retq   

Disassembly of section .text._ZNSt8__detail21_Hashtable_ebo_helperILi0ESt8equal_toINSt7__cxx1112basic_stringIcSt11char_traitsIcESaIcEEEELb1EEC2IRKS8_EEOT_:

0000000000000000 <_ZNSt8__detail21_Hashtable_ebo_helperILi0ESt8equal_toINSt7__cxx1112basic_stringIcSt11char_traitsIcESaIcEEEELb1EEC1IRKS8_EEOT_>:
   0:	55                   	push   %rbp
   1:	48 89 e5             	mov    %rsp,%rbp
   4:	48 83 ec 10          	sub    $0x10,%rsp
   8:	48 89 7d f8          	mov    %rdi,-0x8(%rbp)
   c:	48 89 75 f0          	mov    %rsi,-0x10(%rbp)
  10:	48 8b 45 f0          	mov    -0x10(%rbp),%rax
  14:	48 89 c7             	mov    %rax,%rdi
  17:	e8 00 00 00 00       	callq  1c <_ZNSt8__detail21_Hashtable_ebo_helperILi0ESt8equal_toINSt7__cxx1112basic_stringIcSt11char_traitsIcESaIcEEEELb1EEC1IRKS8_EEOT_+0x1c>
  1c:	90                   	nop
  1d:	c9                   	leaveq 
  1e:	c3                   	retq   

Disassembly of section .text._ZNSt8__detail21_Hashtable_ebo_helperILi0ESaINS_10_Hash_nodeISt4pairIKNSt7__cxx1112basic_stringIcSt11char_traitsIcESaIcEEES8_ELb1EEEELb1EEC2ISC_EEOT_:

0000000000000000 <_ZNSt8__detail21_Hashtable_ebo_helperILi0ESaINS_10_Hash_nodeISt4pairIKNSt7__cxx1112basic_stringIcSt11char_traitsIcESaIcEEES8_ELb1EEEELb1EEC1ISC_EEOT_>:
   0:	55                   	push   %rbp
   1:	48 89 e5             	mov    %rsp,%rbp
   4:	48 83 ec 10          	sub    $0x10,%rsp
   8:	48 89 7d f8          	mov    %rdi,-0x8(%rbp)
   c:	48 89 75 f0          	mov    %rsi,-0x10(%rbp)
  10:	48 8b 45 f0          	mov    -0x10(%rbp),%rax
  14:	48 89 c7             	mov    %rax,%rdi
  17:	e8 00 00 00 00       	callq  1c <_ZNSt8__detail21_Hashtable_ebo_helperILi0ESaINS_10_Hash_nodeISt4pairIKNSt7__cxx1112basic_stringIcSt11char_traitsIcESaIcEEES8_ELb1EEEELb1EEC1ISC_EEOT_+0x1c>
  1c:	48 89 c2             	mov    %rax,%rdx
  1f:	48 8b 45 f8          	mov    -0x8(%rbp),%rax
  23:	48 89 d6             	mov    %rdx,%rsi
  26:	48 89 c7             	mov    %rax,%rdi
  29:	e8 00 00 00 00       	callq  2e <_ZNSt8__detail21_Hashtable_ebo_helperILi0ESaINS_10_Hash_nodeISt4pairIKNSt7__cxx1112basic_stringIcSt11char_traitsIcESaIcEEES8_ELb1EEEELb1EEC1ISC_EEOT_+0x2e>
  2e:	90                   	nop
  2f:	c9                   	leaveq 
  30:	c3                   	retq   

Disassembly of section .text._ZSt19__iterator_categoryIPKSt4pairIKNSt7__cxx1112basic_stringIcSt11char_traitsIcESaIcEEES6_EENSt15iterator_traitsIT_E17iterator_categoryERKSC_:

0000000000000000 <_ZSt19__iterator_categoryIPKSt4pairIKNSt7__cxx1112basic_stringIcSt11char_traitsIcESaIcEEES6_EENSt15iterator_traitsIT_E17iterator_categoryERKSC_>:
   0:	55                   	push   %rbp
   1:	48 89 e5             	mov    %rsp,%rbp
   4:	48 89 7d f8          	mov    %rdi,-0x8(%rbp)
   8:	5d                   	pop    %rbp
   9:	c3                   	retq   

Disassembly of section .text._ZSt8distanceIPKSt4pairIKNSt7__cxx1112basic_stringIcSt11char_traitsIcESaIcEEES6_EENSt15iterator_traitsIT_E15difference_typeESC_SC_:

0000000000000000 <_ZSt8distanceIPKSt4pairIKNSt7__cxx1112basic_stringIcSt11char_traitsIcESaIcEEES6_EENSt15iterator_traitsIT_E15difference_typeESC_SC_>:
   0:	55                   	push   %rbp
   1:	48 89 e5             	mov    %rsp,%rbp
   4:	53                   	push   %rbx
   5:	48 83 ec 28          	sub    $0x28,%rsp
   9:	48 89 7d d8          	mov    %rdi,-0x28(%rbp)
   d:	48 89 75 d0          	mov    %rsi,-0x30(%rbp)
  11:	64 48 8b 04 25 28 00 	mov    %fs:0x28,%rax
  18:	00 00 
  1a:	48 89 45 e8          	mov    %rax,-0x18(%rbp)
  1e:	31 c0                	xor    %eax,%eax
  20:	48 8d 45 d8          	lea    -0x28(%rbp),%rax
  24:	48 89 c7             	mov    %rax,%rdi
  27:	e8 00 00 00 00       	callq  2c <_ZSt8distanceIPKSt4pairIKNSt7__cxx1112basic_stringIcSt11char_traitsIcESaIcEEES6_EENSt15iterator_traitsIT_E15difference_typeESC_SC_+0x2c>
  2c:	48 8b 45 d8          	mov    -0x28(%rbp),%rax
  30:	48 8b 55 d0          	mov    -0x30(%rbp),%rdx
  34:	48 83 ec 08          	sub    $0x8,%rsp
  38:	53                   	push   %rbx
  39:	48 89 d6             	mov    %rdx,%rsi
  3c:	48 89 c7             	mov    %rax,%rdi
  3f:	e8 00 00 00 00       	callq  44 <_ZSt8distanceIPKSt4pairIKNSt7__cxx1112basic_stringIcSt11char_traitsIcESaIcEEES6_EENSt15iterator_traitsIT_E15difference_typeESC_SC_+0x44>
  44:	48 83 c4 10          	add    $0x10,%rsp
  48:	48 8b 4d e8          	mov    -0x18(%rbp),%rcx
  4c:	64 48 33 0c 25 28 00 	xor    %fs:0x28,%rcx
  53:	00 00 
  55:	74 05                	je     5c <_ZSt8distanceIPKSt4pairIKNSt7__cxx1112basic_stringIcSt11char_traitsIcESaIcEEES6_EENSt15iterator_traitsIT_E15difference_typeESC_SC_+0x5c>
  57:	e8 00 00 00 00       	callq  5c <_ZSt8distanceIPKSt4pairIKNSt7__cxx1112basic_stringIcSt11char_traitsIcESaIcEEES6_EENSt15iterator_traitsIT_E15difference_typeESC_SC_+0x5c>
  5c:	48 8b 5d f8          	mov    -0x8(%rbp),%rbx
  60:	c9                   	leaveq 
  61:	c3                   	retq   

Disassembly of section .text._ZNSt16allocator_traitsISaIPNSt8__detail15_Hash_node_baseEEE8allocateERS3_m:

0000000000000000 <_ZNSt16allocator_traitsISaIPNSt8__detail15_Hash_node_baseEEE8allocateERS3_m>:
   0:	55                   	push   %rbp
   1:	48 89 e5             	mov    %rsp,%rbp
   4:	48 83 ec 10          	sub    $0x10,%rsp
   8:	48 89 7d f8          	mov    %rdi,-0x8(%rbp)
   c:	48 89 75 f0          	mov    %rsi,-0x10(%rbp)
  10:	48 8b 4d f0          	mov    -0x10(%rbp),%rcx
  14:	48 8b 45 f8          	mov    -0x8(%rbp),%rax
  18:	ba 00 00 00 00       	mov    $0x0,%edx
  1d:	48 89 ce             	mov    %rcx,%rsi
  20:	48 89 c7             	mov    %rax,%rdi
  23:	e8 00 00 00 00       	callq  28 <_ZNSt16allocator_traitsISaIPNSt8__detail15_Hash_node_baseEEE8allocateERS3_m+0x28>
  28:	c9                   	leaveq 
  29:	c3                   	retq   

Disassembly of section .text._ZSt11__addressofIPNSt8__detail15_Hash_node_baseEEPT_RS3_:

0000000000000000 <_ZSt11__addressofIPNSt8__detail15_Hash_node_baseEEPT_RS3_>:
   0:	55                   	push   %rbp
   1:	48 89 e5             	mov    %rsp,%rbp
   4:	48 89 7d f8          	mov    %rdi,-0x8(%rbp)
   8:	48 8b 45 f8          	mov    -0x8(%rbp),%rax
   c:	5d                   	pop    %rbp
   d:	c3                   	retq   

Disassembly of section .text._ZNKSt8__detail10_Select1stclIRKSt4pairIKNSt7__cxx1112basic_stringIcSt11char_traitsIcESaIcEEES8_EEEDTcl3getILi0EEcl7forwardIT_Efp_EEEOSD_:

0000000000000000 <_ZNKSt8__detail10_Select1stclIRKSt4pairIKNSt7__cxx1112basic_stringIcSt11char_traitsIcESaIcEEES8_EEEDTcl3getILi0EEcl7forwardIT_Efp_EEEOSD_>:
   0:	55                   	push   %rbp
   1:	48 89 e5             	mov    %rsp,%rbp
   4:	48 83 ec 10          	sub    $0x10,%rsp
   8:	48 89 7d f8          	mov    %rdi,-0x8(%rbp)
   c:	48 89 75 f0          	mov    %rsi,-0x10(%rbp)
  10:	48 8b 45 f0          	mov    -0x10(%rbp),%rax
  14:	48 89 c7             	mov    %rax,%rdi
  17:	e8 00 00 00 00       	callq  1c <_ZNKSt8__detail10_Select1stclIRKSt4pairIKNSt7__cxx1112basic_stringIcSt11char_traitsIcESaIcEEES8_EEEDTcl3getILi0EEcl7forwardIT_Efp_EEEOSD_+0x1c>
  1c:	48 89 c7             	mov    %rax,%rdi
  1f:	e8 00 00 00 00       	callq  24 <_ZNKSt8__detail10_Select1stclIRKSt4pairIKNSt7__cxx1112basic_stringIcSt11char_traitsIcESaIcEEES8_EEEDTcl3getILi0EEcl7forwardIT_Efp_EEEOSD_+0x24>
  24:	c9                   	leaveq 
  25:	c3                   	retq   

Disassembly of section .text._ZSt7forwardINSt8__detail14_Node_iteratorISt4pairIKNSt7__cxx1112basic_stringIcSt11char_traitsIcESaIcEEES8_ELb0ELb1EEEEOT_RNSt16remove_referenceISC_E4typeE:

0000000000000000 <_ZSt7forwardINSt8__detail14_Node_iteratorISt4pairIKNSt7__cxx1112basic_stringIcSt11char_traitsIcESaIcEEES8_ELb0ELb1EEEEOT_RNSt16remove_referenceISC_E4typeE>:
   0:	55                   	push   %rbp
   1:	48 89 e5             	mov    %rsp,%rbp
   4:	48 89 7d f8          	mov    %rdi,-0x8(%rbp)
   8:	48 8b 45 f8          	mov    -0x8(%rbp),%rax
   c:	5d                   	pop    %rbp
   d:	c3                   	retq   

Disassembly of section .text._ZSt9make_pairINSt8__detail14_Node_iteratorISt4pairIKNSt7__cxx1112basic_stringIcSt11char_traitsIcESaIcEEES8_ELb0ELb1EEEbES2_INSt17__decay_and_stripIT_E6__typeENSC_IT0_E6__typeEEOSD_OSG_:

0000000000000000 <_ZSt9make_pairINSt8__detail14_Node_iteratorISt4pairIKNSt7__cxx1112basic_stringIcSt11char_traitsIcESaIcEEES8_ELb0ELb1EEEbES2_INSt17__decay_and_stripIT_E6__typeENSC_IT0_E6__typeEEOSD_OSG_>:
   0:	55                   	push   %rbp
   1:	48 89 e5             	mov    %rsp,%rbp
   4:	53                   	push   %rbx
   5:	48 83 ec 38          	sub    $0x38,%rsp
   9:	48 89 7d c8          	mov    %rdi,-0x38(%rbp)
   d:	48 89 75 c0          	mov    %rsi,-0x40(%rbp)
  11:	64 48 8b 04 25 28 00 	mov    %fs:0x28,%rax
  18:	00 00 
  1a:	48 89 45 e8          	mov    %rax,-0x18(%rbp)
  1e:	31 c0                	xor    %eax,%eax
  20:	48 8b 45 c0          	mov    -0x40(%rbp),%rax
  24:	48 89 c7             	mov    %rax,%rdi
  27:	e8 00 00 00 00       	callq  2c <_ZSt9make_pairINSt8__detail14_Node_iteratorISt4pairIKNSt7__cxx1112basic_stringIcSt11char_traitsIcESaIcEEES8_ELb0ELb1EEEbES2_INSt17__decay_and_stripIT_E6__typeENSC_IT0_E6__typeEEOSD_OSG_+0x2c>
  2c:	48 89 c3             	mov    %rax,%rbx
  2f:	48 8b 45 c8          	mov    -0x38(%rbp),%rax
  33:	48 89 c7             	mov    %rax,%rdi
  36:	e8 00 00 00 00       	callq  3b <_ZSt9make_pairINSt8__detail14_Node_iteratorISt4pairIKNSt7__cxx1112basic_stringIcSt11char_traitsIcESaIcEEES8_ELb0ELb1EEEbES2_INSt17__decay_and_stripIT_E6__typeENSC_IT0_E6__typeEEOSD_OSG_+0x3b>
  3b:	48 89 c1             	mov    %rax,%rcx
  3e:	48 8d 45 d0          	lea    -0x30(%rbp),%rax
  42:	48 89 da             	mov    %rbx,%rdx
  45:	48 89 ce             	mov    %rcx,%rsi
  48:	48 89 c7             	mov    %rax,%rdi
  4b:	e8 00 00 00 00       	callq  50 <_ZSt9make_pairINSt8__detail14_Node_iteratorISt4pairIKNSt7__cxx1112basic_stringIcSt11char_traitsIcESaIcEEES8_ELb0ELb1EEEbES2_INSt17__decay_and_stripIT_E6__typeENSC_IT0_E6__typeEEOSD_OSG_+0x50>
  50:	48 8b 45 d0          	mov    -0x30(%rbp),%rax
  54:	48 8b 55 d8          	mov    -0x28(%rbp),%rdx
  58:	48 8b 4d e8          	mov    -0x18(%rbp),%rcx
  5c:	64 48 33 0c 25 28 00 	xor    %fs:0x28,%rcx
  63:	00 00 
  65:	74 05                	je     6c <_ZSt9make_pairINSt8__detail14_Node_iteratorISt4pairIKNSt7__cxx1112basic_stringIcSt11char_traitsIcESaIcEEES8_ELb0ELb1EEEbES2_INSt17__decay_and_stripIT_E6__typeENSC_IT0_E6__typeEEOSD_OSG_+0x6c>
  67:	e8 00 00 00 00       	callq  6c <_ZSt9make_pairINSt8__detail14_Node_iteratorISt4pairIKNSt7__cxx1112basic_stringIcSt11char_traitsIcESaIcEEES8_ELb0ELb1EEEbES2_INSt17__decay_and_stripIT_E6__typeENSC_IT0_E6__typeEEOSD_OSG_+0x6c>
  6c:	48 83 c4 38          	add    $0x38,%rsp
  70:	5b                   	pop    %rbx
  71:	5d                   	pop    %rbp
  72:	c3                   	retq   

Disassembly of section .text._ZNKSt8__detail10_AllocNodeISaINS_10_Hash_nodeISt4pairIKNSt7__cxx1112basic_stringIcSt11char_traitsIcESaIcEEES8_ELb1EEEEEclIRKSA_EEPSB_OT_:

0000000000000000 <_ZNKSt8__detail10_AllocNodeISaINS_10_Hash_nodeISt4pairIKNSt7__cxx1112basic_stringIcSt11char_traitsIcESaIcEEES8_ELb1EEEEEclIRKSA_EEPSB_OT_>:
   0:	55                   	push   %rbp
   1:	48 89 e5             	mov    %rsp,%rbp
   4:	53                   	push   %rbx
   5:	48 83 ec 18          	sub    $0x18,%rsp
   9:	48 89 7d e8          	mov    %rdi,-0x18(%rbp)
   d:	48 89 75 e0          	mov    %rsi,-0x20(%rbp)
  11:	48 8b 45 e8          	mov    -0x18(%rbp),%rax
  15:	48 8b 18             	mov    (%rax),%rbx
  18:	48 8b 45 e0          	mov    -0x20(%rbp),%rax
  1c:	48 89 c7             	mov    %rax,%rdi
  1f:	e8 00 00 00 00       	callq  24 <_ZNKSt8__detail10_AllocNodeISaINS_10_Hash_nodeISt4pairIKNSt7__cxx1112basic_stringIcSt11char_traitsIcESaIcEEES8_ELb1EEEEEclIRKSA_EEPSB_OT_+0x24>
  24:	48 89 c6             	mov    %rax,%rsi
  27:	48 89 df             	mov    %rbx,%rdi
  2a:	e8 00 00 00 00       	callq  2f <_ZNKSt8__detail10_AllocNodeISaINS_10_Hash_nodeISt4pairIKNSt7__cxx1112basic_stringIcSt11char_traitsIcESaIcEEES8_ELb1EEEEEclIRKSA_EEPSB_OT_+0x2f>
  2f:	48 83 c4 18          	add    $0x18,%rsp
  33:	5b                   	pop    %rbx
  34:	5d                   	pop    %rbp
  35:	c3                   	retq   

Disassembly of section .text._ZSt9addressofINSt8__detail10_Hash_nodeISt4pairIKNSt7__cxx1112basic_stringIcSt11char_traitsIcESaIcEEES8_ELb1EEEEPT_RSC_:

0000000000000000 <_ZSt9addressofINSt8__detail10_Hash_nodeISt4pairIKNSt7__cxx1112basic_stringIcSt11char_traitsIcESaIcEEES8_ELb1EEEEPT_RSC_>:
   0:	55                   	push   %rbp
   1:	48 89 e5             	mov    %rsp,%rbp
   4:	48 83 ec 10          	sub    $0x10,%rsp
   8:	48 89 7d f8          	mov    %rdi,-0x8(%rbp)
   c:	48 8b 45 f8          	mov    -0x8(%rbp),%rax
  10:	48 89 c7             	mov    %rax,%rdi
  13:	e8 00 00 00 00       	callq  18 <_ZSt9addressofINSt8__detail10_Hash_nodeISt4pairIKNSt7__cxx1112basic_stringIcSt11char_traitsIcESaIcEEES8_ELb1EEEEPT_RSC_+0x18>
  18:	c9                   	leaveq 
  19:	c3                   	retq   

Disassembly of section .text._ZN9__gnu_cxx13new_allocatorISt4pairIKNSt7__cxx1112basic_stringIcSt11char_traitsIcESaIcEEES7_EE7destroyIS9_EEvPT_:

0000000000000000 <_ZN9__gnu_cxx13new_allocatorISt4pairIKNSt7__cxx1112basic_stringIcSt11char_traitsIcESaIcEEES7_EE7destroyIS9_EEvPT_>:
   0:	55                   	push   %rbp
   1:	48 89 e5             	mov    %rsp,%rbp
   4:	48 83 ec 10          	sub    $0x10,%rsp
   8:	48 89 7d f8          	mov    %rdi,-0x8(%rbp)
   c:	48 89 75 f0          	mov    %rsi,-0x10(%rbp)
  10:	48 8b 45 f0          	mov    -0x10(%rbp),%rax
  14:	48 89 c7             	mov    %rax,%rdi
  17:	e8 00 00 00 00       	callq  1c <_ZN9__gnu_cxx13new_allocatorISt4pairIKNSt7__cxx1112basic_stringIcSt11char_traitsIcESaIcEEES7_EE7destroyIS9_EEvPT_+0x1c>
  1c:	90                   	nop
  1d:	c9                   	leaveq 
  1e:	c3                   	retq   

Disassembly of section .text._ZSt9addressofIPNSt8__detail15_Hash_node_baseEEPT_RS3_:

0000000000000000 <_ZSt9addressofIPNSt8__detail15_Hash_node_baseEEPT_RS3_>:
   0:	55                   	push   %rbp
   1:	48 89 e5             	mov    %rsp,%rbp
   4:	48 83 ec 10          	sub    $0x10,%rsp
   8:	48 89 7d f8          	mov    %rdi,-0x8(%rbp)
   c:	48 8b 45 f8          	mov    -0x8(%rbp),%rax
  10:	48 89 c7             	mov    %rax,%rdi
  13:	e8 00 00 00 00       	callq  18 <_ZSt9addressofIPNSt8__detail15_Hash_node_baseEEPT_RS3_+0x18>
  18:	c9                   	leaveq 
  19:	c3                   	retq   

Disassembly of section .text._ZN9__gnu_cxx13new_allocatorIPNSt8__detail15_Hash_node_baseEEC2Ev:

0000000000000000 <_ZN9__gnu_cxx13new_allocatorIPNSt8__detail15_Hash_node_baseEEC1Ev>:
   0:	55                   	push   %rbp
   1:	48 89 e5             	mov    %rsp,%rbp
   4:	48 89 7d f8          	mov    %rdi,-0x8(%rbp)
   8:	90                   	nop
   9:	5d                   	pop    %rbp
   a:	c3                   	retq   

Disassembly of section .text._ZN9__gnu_cxx13new_allocatorIPNSt8__detail15_Hash_node_baseEED2Ev:

0000000000000000 <_ZN9__gnu_cxx13new_allocatorIPNSt8__detail15_Hash_node_baseEED1Ev>:
   0:	55                   	push   %rbp
   1:	48 89 e5             	mov    %rsp,%rbp
   4:	48 89 7d f8          	mov    %rdi,-0x8(%rbp)
   8:	90                   	nop
   9:	5d                   	pop    %rbp
   a:	c3                   	retq   

Disassembly of section .text._ZN9__gnu_cxx13new_allocatorIPNSt8__detail15_Hash_node_baseEE10deallocateEPS3_m:

0000000000000000 <_ZN9__gnu_cxx13new_allocatorIPNSt8__detail15_Hash_node_baseEE10deallocateEPS3_m>:
   0:	55                   	push   %rbp
   1:	48 89 e5             	mov    %rsp,%rbp
   4:	48 83 ec 20          	sub    $0x20,%rsp
   8:	48 89 7d f8          	mov    %rdi,-0x8(%rbp)
   c:	48 89 75 f0          	mov    %rsi,-0x10(%rbp)
  10:	48 89 55 e8          	mov    %rdx,-0x18(%rbp)
  14:	48 8b 45 f0          	mov    -0x10(%rbp),%rax
  18:	48 89 c7             	mov    %rax,%rdi
  1b:	e8 00 00 00 00       	callq  20 <_ZN9__gnu_cxx13new_allocatorIPNSt8__detail15_Hash_node_baseEE10deallocateEPS3_m+0x20>
  20:	90                   	nop
  21:	c9                   	leaveq 
  22:	c3                   	retq   

Disassembly of section .text._ZNSt8__detail21_Hashtable_ebo_helperILi2ENS_18_Mod_range_hashingELb1EE7_S_cgetERKS2_:

0000000000000000 <_ZNSt8__detail21_Hashtable_ebo_helperILi2ENS_18_Mod_range_hashingELb1EE7_S_cgetERKS2_>:
   0:	55                   	push   %rbp
   1:	48 89 e5             	mov    %rsp,%rbp
   4:	48 89 7d f8          	mov    %rdi,-0x8(%rbp)
   8:	48 8b 45 f8          	mov    -0x8(%rbp),%rax
   c:	5d                   	pop    %rbp
   d:	c3                   	retq   

Disassembly of section .text._ZNSt8__detail13_Equal_helperINSt7__cxx1112basic_stringIcSt11char_traitsIcESaIcEEESt4pairIKS6_S6_ENS_10_Select1stESt8equal_toIS6_EmLb1EE9_S_equalsERKSC_RKSA_RS8_mPNS_10_Hash_nodeIS9_Lb1EEE:

0000000000000000 <_ZNSt8__detail13_Equal_helperINSt7__cxx1112basic_stringIcSt11char_traitsIcESaIcEEESt4pairIKS6_S6_ENS_10_Select1stESt8equal_toIS6_EmLb1EE9_S_equalsERKSC_RKSA_RS8_mPNS_10_Hash_nodeIS9_Lb1EEE>:
   0:	55                   	push   %rbp
   1:	48 89 e5             	mov    %rsp,%rbp
   4:	48 83 ec 30          	sub    $0x30,%rsp
   8:	48 89 7d f8          	mov    %rdi,-0x8(%rbp)
   c:	48 89 75 f0          	mov    %rsi,-0x10(%rbp)
  10:	48 89 55 e8          	mov    %rdx,-0x18(%rbp)
  14:	48 89 4d e0          	mov    %rcx,-0x20(%rbp)
  18:	4c 89 45 d8          	mov    %r8,-0x28(%rbp)
  1c:	48 8b 45 d8          	mov    -0x28(%rbp),%rax
  20:	48 8b 40 48          	mov    0x48(%rax),%rax
  24:	48 39 45 e0          	cmp    %rax,-0x20(%rbp)
  28:	75 3f                	jne    69 <_ZNSt8__detail13_Equal_helperINSt7__cxx1112basic_stringIcSt11char_traitsIcESaIcEEESt4pairIKS6_S6_ENS_10_Select1stESt8equal_toIS6_EmLb1EE9_S_equalsERKSC_RKSA_RS8_mPNS_10_Hash_nodeIS9_Lb1EEE+0x69>
  2a:	48 8b 45 d8          	mov    -0x28(%rbp),%rax
  2e:	48 89 c7             	mov    %rax,%rdi
  31:	e8 00 00 00 00       	callq  36 <_ZNSt8__detail13_Equal_helperINSt7__cxx1112basic_stringIcSt11char_traitsIcESaIcEEESt4pairIKS6_S6_ENS_10_Select1stESt8equal_toIS6_EmLb1EE9_S_equalsERKSC_RKSA_RS8_mPNS_10_Hash_nodeIS9_Lb1EEE+0x36>
  36:	48 89 c2             	mov    %rax,%rdx
  39:	48 8b 45 f0          	mov    -0x10(%rbp),%rax
  3d:	48 89 d6             	mov    %rdx,%rsi
  40:	48 89 c7             	mov    %rax,%rdi
  43:	e8 00 00 00 00       	callq  48 <_ZNSt8__detail13_Equal_helperINSt7__cxx1112basic_stringIcSt11char_traitsIcESaIcEEESt4pairIKS6_S6_ENS_10_Select1stESt8equal_toIS6_EmLb1EE9_S_equalsERKSC_RKSA_RS8_mPNS_10_Hash_nodeIS9_Lb1EEE+0x48>
  48:	48 89 c2             	mov    %rax,%rdx
  4b:	48 8b 4d e8          	mov    -0x18(%rbp),%rcx
  4f:	48 8b 45 f8          	mov    -0x8(%rbp),%rax
  53:	48 89 ce             	mov    %rcx,%rsi
  56:	48 89 c7             	mov    %rax,%rdi
  59:	e8 00 00 00 00       	callq  5e <_ZNSt8__detail13_Equal_helperINSt7__cxx1112basic_stringIcSt11char_traitsIcESaIcEEESt4pairIKS6_S6_ENS_10_Select1stESt8equal_toIS6_EmLb1EE9_S_equalsERKSC_RKSA_RS8_mPNS_10_Hash_nodeIS9_Lb1EEE+0x5e>
  5e:	84 c0                	test   %al,%al
  60:	74 07                	je     69 <_ZNSt8__detail13_Equal_helperINSt7__cxx1112basic_stringIcSt11char_traitsIcESaIcEEESt4pairIKS6_S6_ENS_10_Select1stESt8equal_toIS6_EmLb1EE9_S_equalsERKSC_RKSA_RS8_mPNS_10_Hash_nodeIS9_Lb1EEE+0x69>
  62:	b8 01 00 00 00       	mov    $0x1,%eax
  67:	eb 05                	jmp    6e <_ZNSt8__detail13_Equal_helperINSt7__cxx1112basic_stringIcSt11char_traitsIcESaIcEEESt4pairIKS6_S6_ENS_10_Select1stESt8equal_toIS6_EmLb1EE9_S_equalsERKSC_RKSA_RS8_mPNS_10_Hash_nodeIS9_Lb1EEE+0x6e>
  69:	b8 00 00 00 00       	mov    $0x0,%eax
  6e:	c9                   	leaveq 
  6f:	c3                   	retq   

Disassembly of section .text._ZNKSt8__detail15_Hashtable_baseINSt7__cxx1112basic_stringIcSt11char_traitsIcESaIcEEESt4pairIKS6_S6_ENS_10_Select1stESt8equal_toIS6_ESt4hashIS6_ENS_18_Mod_range_hashingENS_20_Default_ranged_hashENS_17_Hashtable_traitsILb1ELb0ELb1EEEE5_M_eqEv:

0000000000000000 <_ZNKSt8__detail15_Hashtable_baseINSt7__cxx1112basic_stringIcSt11char_traitsIcESaIcEEESt4pairIKS6_S6_ENS_10_Select1stESt8equal_toIS6_ESt4hashIS6_ENS_18_Mod_range_hashingENS_20_Default_ranged_hashENS_17_Hashtable_traitsILb1ELb0ELb1EEEE5_M_eqEv>:
   0:	55                   	push   %rbp
   1:	48 89 e5             	mov    %rsp,%rbp
   4:	48 83 ec 10          	sub    $0x10,%rsp
   8:	48 89 7d f8          	mov    %rdi,-0x8(%rbp)
   c:	48 8b 45 f8          	mov    -0x8(%rbp),%rax
  10:	48 89 c7             	mov    %rax,%rdi
  13:	e8 00 00 00 00       	callq  18 <_ZNKSt8__detail15_Hashtable_baseINSt7__cxx1112basic_stringIcSt11char_traitsIcESaIcEEESt4pairIKS6_S6_ENS_10_Select1stESt8equal_toIS6_ESt4hashIS6_ENS_18_Mod_range_hashingENS_20_Default_ranged_hashENS_17_Hashtable_traitsILb1ELb0ELb1EEEE5_M_eqEv+0x18>
  18:	c9                   	leaveq 
  19:	c3                   	retq   

Disassembly of section .text._ZNKSt8__detail15_Hash_code_baseINSt7__cxx1112basic_stringIcSt11char_traitsIcESaIcEEESt4pairIKS6_S6_ENS_10_Select1stESt4hashIS6_ENS_18_Mod_range_hashingENS_20_Default_ranged_hashELb1EE10_M_extractEv:

0000000000000000 <_ZNKSt8__detail15_Hash_code_baseINSt7__cxx1112basic_stringIcSt11char_traitsIcESaIcEEESt4pairIKS6_S6_ENS_10_Select1stESt4hashIS6_ENS_18_Mod_range_hashingENS_20_Default_ranged_hashELb1EE10_M_extractEv>:
   0:	55                   	push   %rbp
   1:	48 89 e5             	mov    %rsp,%rbp
   4:	48 83 ec 10          	sub    $0x10,%rsp
   8:	48 89 7d f8          	mov    %rdi,-0x8(%rbp)
   c:	48 8b 45 f8          	mov    -0x8(%rbp),%rax
  10:	48 89 c7             	mov    %rax,%rdi
  13:	e8 00 00 00 00       	callq  18 <_ZNKSt8__detail15_Hash_code_baseINSt7__cxx1112basic_stringIcSt11char_traitsIcESaIcEEESt4pairIKS6_S6_ENS_10_Select1stESt4hashIS6_ENS_18_Mod_range_hashingENS_20_Default_ranged_hashELb1EE10_M_extractEv+0x18>
  18:	c9                   	leaveq 
  19:	c3                   	retq   

Disassembly of section .text._ZNKSt8__detail15_Hash_code_baseINSt7__cxx1112basic_stringIcSt11char_traitsIcESaIcEEESt4pairIKS6_S6_ENS_10_Select1stESt4hashIS6_ENS_18_Mod_range_hashingENS_20_Default_ranged_hashELb1EE15_M_bucket_indexEPKNS_10_Hash_nodeIS9_Lb1EEEm:

0000000000000000 <_ZNKSt8__detail15_Hash_code_baseINSt7__cxx1112basic_stringIcSt11char_traitsIcESaIcEEESt4pairIKS6_S6_ENS_10_Select1stESt4hashIS6_ENS_18_Mod_range_hashingENS_20_Default_ranged_hashELb1EE15_M_bucket_indexEPKNS_10_Hash_nodeIS9_Lb1EEEm>:
   0:	55                   	push   %rbp
   1:	48 89 e5             	mov    %rsp,%rbp
   4:	48 83 ec 20          	sub    $0x20,%rsp
   8:	48 89 7d f8          	mov    %rdi,-0x8(%rbp)
   c:	48 89 75 f0          	mov    %rsi,-0x10(%rbp)
  10:	48 89 55 e8          	mov    %rdx,-0x18(%rbp)
  14:	48 8b 45 f8          	mov    -0x8(%rbp),%rax
  18:	48 89 c7             	mov    %rax,%rdi
  1b:	e8 00 00 00 00       	callq  20 <_ZNKSt8__detail15_Hash_code_baseINSt7__cxx1112basic_stringIcSt11char_traitsIcESaIcEEESt4pairIKS6_S6_ENS_10_Select1stESt4hashIS6_ENS_18_Mod_range_hashingENS_20_Default_ranged_hashELb1EE15_M_bucket_indexEPKNS_10_Hash_nodeIS9_Lb1EEEm+0x20>
  20:	48 89 c1             	mov    %rax,%rcx
  23:	48 8b 45 f0          	mov    -0x10(%rbp),%rax
  27:	48 8b 40 48          	mov    0x48(%rax),%rax
  2b:	48 8b 55 e8          	mov    -0x18(%rbp),%rdx
  2f:	48 89 c6             	mov    %rax,%rsi
  32:	48 89 cf             	mov    %rcx,%rdi
  35:	e8 00 00 00 00       	callq  3a <_ZNKSt8__detail15_Hash_code_baseINSt7__cxx1112basic_stringIcSt11char_traitsIcESaIcEEESt4pairIKS6_S6_ENS_10_Select1stESt4hashIS6_ENS_18_Mod_range_hashingENS_20_Default_ranged_hashELb1EE15_M_bucket_indexEPKNS_10_Hash_nodeIS9_Lb1EEEm+0x3a>
  3a:	c9                   	leaveq 
  3b:	c3                   	retq   

Disassembly of section .text._ZNK9__gnu_cxx13new_allocatorINSt8__detail10_Hash_nodeISt4pairIKNSt7__cxx1112basic_stringIcSt11char_traitsIcESaIcEEES9_ELb1EEEE8max_sizeEv:

0000000000000000 <_ZNK9__gnu_cxx13new_allocatorINSt8__detail10_Hash_nodeISt4pairIKNSt7__cxx1112basic_stringIcSt11char_traitsIcESaIcEEES9_ELb1EEEE8max_sizeEv>:
   0:	55                   	push   %rbp
   1:	48 89 e5             	mov    %rsp,%rbp
   4:	48 89 7d f8          	mov    %rdi,-0x8(%rbp)
   8:	48 b8 33 33 33 33 33 	movabs $0x333333333333333,%rax
   f:	33 33 03 
  12:	5d                   	pop    %rbp
  13:	c3                   	retq   

Disassembly of section .text._ZN9__gnu_cxx16__aligned_bufferISt4pairIKNSt7__cxx1112basic_stringIcSt11char_traitsIcESaIcEEES7_EE7_M_addrEv:

0000000000000000 <_ZN9__gnu_cxx16__aligned_bufferISt4pairIKNSt7__cxx1112basic_stringIcSt11char_traitsIcESaIcEEES7_EE7_M_addrEv>:
   0:	55                   	push   %rbp
   1:	48 89 e5             	mov    %rsp,%rbp
   4:	48 89 7d f8          	mov    %rdi,-0x8(%rbp)
   8:	48 8b 45 f8          	mov    -0x8(%rbp),%rax
   c:	5d                   	pop    %rbp
   d:	c3                   	retq   

Disassembly of section .text._ZNSt11_Tuple_implILm0EJRKNSt7__cxx1112basic_stringIcSt11char_traitsIcESaIcEEEEE7_M_headERS8_:

0000000000000000 <_ZNSt11_Tuple_implILm0EJRKNSt7__cxx1112basic_stringIcSt11char_traitsIcESaIcEEEEE7_M_headERS8_>:
   0:	55                   	push   %rbp
   1:	48 89 e5             	mov    %rsp,%rbp
   4:	48 83 ec 10          	sub    $0x10,%rsp
   8:	48 89 7d f8          	mov    %rdi,-0x8(%rbp)
   c:	48 8b 45 f8          	mov    -0x8(%rbp),%rax
  10:	48 89 c7             	mov    %rax,%rdi
  13:	e8 00 00 00 00       	callq  18 <_ZNSt11_Tuple_implILm0EJRKNSt7__cxx1112basic_stringIcSt11char_traitsIcESaIcEEEEE7_M_headERS8_+0x18>
  18:	c9                   	leaveq 
  19:	c3                   	retq   

Disassembly of section .text._ZNSt10_Head_baseILm0ERKNSt7__cxx1112basic_stringIcSt11char_traitsIcESaIcEEELb0EE7_M_headERS8_:

0000000000000000 <_ZNSt10_Head_baseILm0ERKNSt7__cxx1112basic_stringIcSt11char_traitsIcESaIcEEELb0EE7_M_headERS8_>:
   0:	55                   	push   %rbp
   1:	48 89 e5             	mov    %rsp,%rbp
   4:	48 89 7d f8          	mov    %rdi,-0x8(%rbp)
   8:	48 8b 45 f8          	mov    -0x8(%rbp),%rax
   c:	48 8b 00             	mov    (%rax),%rax
   f:	5d                   	pop    %rbp
  10:	c3                   	retq   

Disassembly of section .text._ZSt7forwardIRKNSt7__cxx1112basic_stringIcSt11char_traitsIcESaIcEEEEOT_RNSt16remove_referenceIS8_E4typeE:

0000000000000000 <_ZSt7forwardIRKNSt7__cxx1112basic_stringIcSt11char_traitsIcESaIcEEEEOT_RNSt16remove_referenceIS8_E4typeE>:
   0:	55                   	push   %rbp
   1:	48 89 e5             	mov    %rsp,%rbp
   4:	48 89 7d f8          	mov    %rdi,-0x8(%rbp)
   8:	48 8b 45 f8          	mov    -0x8(%rbp),%rax
   c:	5d                   	pop    %rbp
   d:	c3                   	retq   

Disassembly of section .text._ZNSt11_Tuple_implILm0EJRKNSt7__cxx1112basic_stringIcSt11char_traitsIcESaIcEEEEEC2EOS8_:

0000000000000000 <_ZNSt11_Tuple_implILm0EJRKNSt7__cxx1112basic_stringIcSt11char_traitsIcESaIcEEEEEC1EOS8_>:
   0:	55                   	push   %rbp
   1:	48 89 e5             	mov    %rsp,%rbp
   4:	53                   	push   %rbx
   5:	48 83 ec 18          	sub    $0x18,%rsp
   9:	48 89 7d e8          	mov    %rdi,-0x18(%rbp)
   d:	48 89 75 e0          	mov    %rsi,-0x20(%rbp)
  11:	48 8b 5d e8          	mov    -0x18(%rbp),%rbx
  15:	48 8b 45 e0          	mov    -0x20(%rbp),%rax
  19:	48 89 c7             	mov    %rax,%rdi
  1c:	e8 00 00 00 00       	callq  21 <_ZNSt11_Tuple_implILm0EJRKNSt7__cxx1112basic_stringIcSt11char_traitsIcESaIcEEEEEC1EOS8_+0x21>
  21:	48 89 c7             	mov    %rax,%rdi
  24:	e8 00 00 00 00       	callq  29 <_ZNSt11_Tuple_implILm0EJRKNSt7__cxx1112basic_stringIcSt11char_traitsIcESaIcEEEEEC1EOS8_+0x29>
  29:	48 89 c6             	mov    %rax,%rsi
  2c:	48 89 df             	mov    %rbx,%rdi
  2f:	e8 00 00 00 00       	callq  34 <_ZNSt11_Tuple_implILm0EJRKNSt7__cxx1112basic_stringIcSt11char_traitsIcESaIcEEEEEC1EOS8_+0x34>
  34:	90                   	nop
  35:	48 83 c4 18          	add    $0x18,%rsp
  39:	5b                   	pop    %rbx
  3a:	5d                   	pop    %rbp
  3b:	c3                   	retq   

Disassembly of section .text._ZNSt4pairIKNSt7__cxx1112basic_stringIcSt11char_traitsIcESaIcEEES5_EC2IJRS6_EJEEESt21piecewise_construct_tSt5tupleIJDpT_EESB_IJDpT0_EE:

0000000000000000 <_ZNSt4pairIKNSt7__cxx1112basic_stringIcSt11char_traitsIcESaIcEEES5_EC1IJRS6_EJEEESt21piecewise_construct_tSt5tupleIJDpT_EESB_IJDpT0_EE>:
   0:	55                   	push   %rbp
   1:	48 89 e5             	mov    %rsp,%rbp
   4:	48 83 ec 20          	sub    $0x20,%rsp
   8:	48 89 7d e8          	mov    %rdi,-0x18(%rbp)
   c:	48 89 75 e0          	mov    %rsi,-0x20(%rbp)
  10:	64 48 8b 04 25 28 00 	mov    %fs:0x28,%rax
  17:	00 00 
  19:	48 89 45 f8          	mov    %rax,-0x8(%rbp)
  1d:	31 c0                	xor    %eax,%eax
  1f:	48 8d 55 18          	lea    0x18(%rbp),%rdx
  23:	48 8b 4d e0          	mov    -0x20(%rbp),%rcx
  27:	48 8b 45 e8          	mov    -0x18(%rbp),%rax
  2b:	41 51                	push   %r9
  2d:	41 50                	push   %r8
  2f:	48 89 ce             	mov    %rcx,%rsi
  32:	48 89 c7             	mov    %rax,%rdi
  35:	e8 00 00 00 00       	callq  3a <_ZNSt4pairIKNSt7__cxx1112basic_stringIcSt11char_traitsIcESaIcEEES5_EC1IJRS6_EJEEESt21piecewise_construct_tSt5tupleIJDpT_EESB_IJDpT0_EE+0x3a>
  3a:	48 83 c4 10          	add    $0x10,%rsp
  3e:	90                   	nop
  3f:	48 8b 45 f8          	mov    -0x8(%rbp),%rax
  43:	64 48 33 04 25 28 00 	xor    %fs:0x28,%rax
  4a:	00 00 
  4c:	74 05                	je     53 <_ZNSt4pairIKNSt7__cxx1112basic_stringIcSt11char_traitsIcESaIcEEES5_EC1IJRS6_EJEEESt21piecewise_construct_tSt5tupleIJDpT_EESB_IJDpT0_EE+0x53>
  4e:	e8 00 00 00 00       	callq  53 <_ZNSt4pairIKNSt7__cxx1112basic_stringIcSt11char_traitsIcESaIcEEES5_EC1IJRS6_EJEEESt21piecewise_construct_tSt5tupleIJDpT_EESB_IJDpT0_EE+0x53>
  53:	c9                   	leaveq 
  54:	c3                   	retq   

Disassembly of section .text._ZNSt10__pair_getILm0EE5__getIKNSt7__cxx1112basic_stringIcSt11char_traitsIcESaIcEEES7_EERT_RSt4pairIS9_T0_E:

0000000000000000 <_ZNSt10__pair_getILm0EE5__getIKNSt7__cxx1112basic_stringIcSt11char_traitsIcESaIcEEES7_EERT_RSt4pairIS9_T0_E>:
   0:	55                   	push   %rbp
   1:	48 89 e5             	mov    %rsp,%rbp
   4:	48 89 7d f8          	mov    %rdi,-0x8(%rbp)
   8:	48 8b 45 f8          	mov    -0x8(%rbp),%rax
   c:	5d                   	pop    %rbp
   d:	c3                   	retq   

Disassembly of section .text._ZSt10__distanceIPcENSt15iterator_traitsIT_E15difference_typeES2_S2_St26random_access_iterator_tag:

0000000000000000 <_ZSt10__distanceIPcENSt15iterator_traitsIT_E15difference_typeES2_S2_St26random_access_iterator_tag>:
   0:	55                   	push   %rbp
   1:	48 89 e5             	mov    %rsp,%rbp
   4:	48 89 7d f8          	mov    %rdi,-0x8(%rbp)
   8:	48 89 75 f0          	mov    %rsi,-0x10(%rbp)
   c:	48 8b 55 f0          	mov    -0x10(%rbp),%rdx
  10:	48 8b 45 f8          	mov    -0x8(%rbp),%rax
  14:	48 29 c2             	sub    %rax,%rdx
  17:	48 89 d0             	mov    %rdx,%rax
  1a:	5d                   	pop    %rbp
  1b:	c3                   	retq   

Disassembly of section .text._ZSt7forwardIRKNSt8__detail10_Select1stEEOT_RNSt16remove_referenceIS4_E4typeE:

0000000000000000 <_ZSt7forwardIRKNSt8__detail10_Select1stEEOT_RNSt16remove_referenceIS4_E4typeE>:
   0:	55                   	push   %rbp
   1:	48 89 e5             	mov    %rsp,%rbp
   4:	48 89 7d f8          	mov    %rdi,-0x8(%rbp)
   8:	48 8b 45 f8          	mov    -0x8(%rbp),%rax
   c:	5d                   	pop    %rbp
   d:	c3                   	retq   

Disassembly of section .text._ZNSt8__detail21_Hashtable_ebo_helperILi0ENS_10_Select1stELb1EEC2IRKS1_EEOT_:

0000000000000000 <_ZNSt8__detail21_Hashtable_ebo_helperILi0ENS_10_Select1stELb1EEC1IRKS1_EEOT_>:
   0:	55                   	push   %rbp
   1:	48 89 e5             	mov    %rsp,%rbp
   4:	48 83 ec 10          	sub    $0x10,%rsp
   8:	48 89 7d f8          	mov    %rdi,-0x8(%rbp)
   c:	48 89 75 f0          	mov    %rsi,-0x10(%rbp)
  10:	48 8b 45 f0          	mov    -0x10(%rbp),%rax
  14:	48 89 c7             	mov    %rax,%rdi
  17:	e8 00 00 00 00       	callq  1c <_ZNSt8__detail21_Hashtable_ebo_helperILi0ENS_10_Select1stELb1EEC1IRKS1_EEOT_+0x1c>
  1c:	90                   	nop
  1d:	c9                   	leaveq 
  1e:	c3                   	retq   

Disassembly of section .text._ZSt7forwardIRKSt4hashINSt7__cxx1112basic_stringIcSt11char_traitsIcESaIcEEEEEOT_RNSt16remove_referenceISA_E4typeE:

0000000000000000 <_ZSt7forwardIRKSt4hashINSt7__cxx1112basic_stringIcSt11char_traitsIcESaIcEEEEEOT_RNSt16remove_referenceISA_E4typeE>:
   0:	55                   	push   %rbp
   1:	48 89 e5             	mov    %rsp,%rbp
   4:	48 89 7d f8          	mov    %rdi,-0x8(%rbp)
   8:	48 8b 45 f8          	mov    -0x8(%rbp),%rax
   c:	5d                   	pop    %rbp
   d:	c3                   	retq   

Disassembly of section .text._ZNSt8__detail21_Hashtable_ebo_helperILi1ESt4hashINSt7__cxx1112basic_stringIcSt11char_traitsIcESaIcEEEELb1EEC2IRKS8_EEOT_:

0000000000000000 <_ZNSt8__detail21_Hashtable_ebo_helperILi1ESt4hashINSt7__cxx1112basic_stringIcSt11char_traitsIcESaIcEEEELb1EEC1IRKS8_EEOT_>:
   0:	55                   	push   %rbp
   1:	48 89 e5             	mov    %rsp,%rbp
   4:	48 83 ec 10          	sub    $0x10,%rsp
   8:	48 89 7d f8          	mov    %rdi,-0x8(%rbp)
   c:	48 89 75 f0          	mov    %rsi,-0x10(%rbp)
  10:	48 8b 45 f0          	mov    -0x10(%rbp),%rax
  14:	48 89 c7             	mov    %rax,%rdi
  17:	e8 00 00 00 00       	callq  1c <_ZNSt8__detail21_Hashtable_ebo_helperILi1ESt4hashINSt7__cxx1112basic_stringIcSt11char_traitsIcESaIcEEEELb1EEC1IRKS8_EEOT_+0x1c>
  1c:	90                   	nop
  1d:	c9                   	leaveq 
  1e:	c3                   	retq   

Disassembly of section .text._ZSt7forwardIRKNSt8__detail18_Mod_range_hashingEEOT_RNSt16remove_referenceIS4_E4typeE:

0000000000000000 <_ZSt7forwardIRKNSt8__detail18_Mod_range_hashingEEOT_RNSt16remove_referenceIS4_E4typeE>:
   0:	55                   	push   %rbp
   1:	48 89 e5             	mov    %rsp,%rbp
   4:	48 89 7d f8          	mov    %rdi,-0x8(%rbp)
   8:	48 8b 45 f8          	mov    -0x8(%rbp),%rax
   c:	5d                   	pop    %rbp
   d:	c3                   	retq   

Disassembly of section .text._ZNSt8__detail21_Hashtable_ebo_helperILi2ENS_18_Mod_range_hashingELb1EEC2IRKS1_EEOT_:

0000000000000000 <_ZNSt8__detail21_Hashtable_ebo_helperILi2ENS_18_Mod_range_hashingELb1EEC1IRKS1_EEOT_>:
   0:	55                   	push   %rbp
   1:	48 89 e5             	mov    %rsp,%rbp
   4:	48 83 ec 10          	sub    $0x10,%rsp
   8:	48 89 7d f8          	mov    %rdi,-0x8(%rbp)
   c:	48 89 75 f0          	mov    %rsi,-0x10(%rbp)
  10:	48 8b 45 f0          	mov    -0x10(%rbp),%rax
  14:	48 89 c7             	mov    %rax,%rdi
  17:	e8 00 00 00 00       	callq  1c <_ZNSt8__detail21_Hashtable_ebo_helperILi2ENS_18_Mod_range_hashingELb1EEC1IRKS1_EEOT_+0x1c>
  1c:	90                   	nop
  1d:	c9                   	leaveq 
  1e:	c3                   	retq   

Disassembly of section .text._ZNSaINSt8__detail10_Hash_nodeISt4pairIKNSt7__cxx1112basic_stringIcSt11char_traitsIcESaIcEEES7_ELb1EEEEC2ERKSB_:

0000000000000000 <_ZNSaINSt8__detail10_Hash_nodeISt4pairIKNSt7__cxx1112basic_stringIcSt11char_traitsIcESaIcEEES7_ELb1EEEEC1ERKSB_>:
   0:	55                   	push   %rbp
   1:	48 89 e5             	mov    %rsp,%rbp
   4:	48 83 ec 10          	sub    $0x10,%rsp
   8:	48 89 7d f8          	mov    %rdi,-0x8(%rbp)
   c:	48 89 75 f0          	mov    %rsi,-0x10(%rbp)
  10:	48 8b 55 f0          	mov    -0x10(%rbp),%rdx
  14:	48 8b 45 f8          	mov    -0x8(%rbp),%rax
  18:	48 89 d6             	mov    %rdx,%rsi
  1b:	48 89 c7             	mov    %rax,%rdi
  1e:	e8 00 00 00 00       	callq  23 <_ZNSaINSt8__detail10_Hash_nodeISt4pairIKNSt7__cxx1112basic_stringIcSt11char_traitsIcESaIcEEES7_ELb1EEEEC1ERKSB_+0x23>
  23:	90                   	nop
  24:	c9                   	leaveq 
  25:	c3                   	retq   

Disassembly of section .text._ZSt10__distanceIPKSt4pairIKNSt7__cxx1112basic_stringIcSt11char_traitsIcESaIcEEES6_EENSt15iterator_traitsIT_E15difference_typeESC_SC_St26random_access_iterator_tag:

0000000000000000 <_ZSt10__distanceIPKSt4pairIKNSt7__cxx1112basic_stringIcSt11char_traitsIcESaIcEEES6_EENSt15iterator_traitsIT_E15difference_typeESC_SC_St26random_access_iterator_tag>:
   0:	55                   	push   %rbp
   1:	48 89 e5             	mov    %rsp,%rbp
   4:	48 89 7d f8          	mov    %rdi,-0x8(%rbp)
   8:	48 89 75 f0          	mov    %rsi,-0x10(%rbp)
   c:	48 8b 55 f0          	mov    -0x10(%rbp),%rdx
  10:	48 8b 45 f8          	mov    -0x8(%rbp),%rax
  14:	48 29 c2             	sub    %rax,%rdx
  17:	48 89 d0             	mov    %rdx,%rax
  1a:	48 c1 f8 06          	sar    $0x6,%rax
  1e:	5d                   	pop    %rbp
  1f:	c3                   	retq   

Disassembly of section .text._ZN9__gnu_cxx13new_allocatorIPNSt8__detail15_Hash_node_baseEE8allocateEmPKv:

0000000000000000 <_ZN9__gnu_cxx13new_allocatorIPNSt8__detail15_Hash_node_baseEE8allocateEmPKv>:
   0:	55                   	push   %rbp
   1:	48 89 e5             	mov    %rsp,%rbp
   4:	48 83 ec 20          	sub    $0x20,%rsp
   8:	48 89 7d f8          	mov    %rdi,-0x8(%rbp)
   c:	48 89 75 f0          	mov    %rsi,-0x10(%rbp)
  10:	48 89 55 e8          	mov    %rdx,-0x18(%rbp)
  14:	48 8b 45 f8          	mov    -0x8(%rbp),%rax
  18:	48 89 c7             	mov    %rax,%rdi
  1b:	e8 00 00 00 00       	callq  20 <_ZN9__gnu_cxx13new_allocatorIPNSt8__detail15_Hash_node_baseEE8allocateEmPKv+0x20>
  20:	48 39 45 f0          	cmp    %rax,-0x10(%rbp)
  24:	0f 97 c0             	seta   %al
  27:	84 c0                	test   %al,%al
  29:	74 05                	je     30 <_ZN9__gnu_cxx13new_allocatorIPNSt8__detail15_Hash_node_baseEE8allocateEmPKv+0x30>
  2b:	e8 00 00 00 00       	callq  30 <_ZN9__gnu_cxx13new_allocatorIPNSt8__detail15_Hash_node_baseEE8allocateEmPKv+0x30>
  30:	48 8b 45 f0          	mov    -0x10(%rbp),%rax
  34:	48 c1 e0 03          	shl    $0x3,%rax
  38:	48 89 c7             	mov    %rax,%rdi
  3b:	e8 00 00 00 00       	callq  40 <_ZN9__gnu_cxx13new_allocatorIPNSt8__detail15_Hash_node_baseEE8allocateEmPKv+0x40>
  40:	c9                   	leaveq 
  41:	c3                   	retq   

Disassembly of section .text._ZSt3getILm0EKNSt7__cxx1112basic_stringIcSt11char_traitsIcESaIcEEES5_ERKNSt13tuple_elementIXT_ESt4pairIT0_T1_EE4typeERKSB_:

0000000000000000 <_ZSt3getILm0EKNSt7__cxx1112basic_stringIcSt11char_traitsIcESaIcEEES5_ERKNSt13tuple_elementIXT_ESt4pairIT0_T1_EE4typeERKSB_>:
   0:	55                   	push   %rbp
   1:	48 89 e5             	mov    %rsp,%rbp
   4:	48 83 ec 10          	sub    $0x10,%rsp
   8:	48 89 7d f8          	mov    %rdi,-0x8(%rbp)
   c:	48 8b 45 f8          	mov    -0x8(%rbp),%rax
  10:	48 89 c7             	mov    %rax,%rdi
  13:	e8 00 00 00 00       	callq  18 <_ZSt3getILm0EKNSt7__cxx1112basic_stringIcSt11char_traitsIcESaIcEEES5_ERKNSt13tuple_elementIXT_ESt4pairIT0_T1_EE4typeERKSB_+0x18>
  18:	c9                   	leaveq 
  19:	c3                   	retq   

Disassembly of section .text._ZNSt4pairINSt8__detail14_Node_iteratorIS_IKNSt7__cxx1112basic_stringIcSt11char_traitsIcESaIcEEES7_ELb0ELb1EEEbEC2ISA_bLb1EEEOT_OT0_:

0000000000000000 <_ZNSt4pairINSt8__detail14_Node_iteratorIS_IKNSt7__cxx1112basic_stringIcSt11char_traitsIcESaIcEEES7_ELb0ELb1EEEbEC1ISA_bLb1EEEOT_OT0_>:
   0:	55                   	push   %rbp
   1:	48 89 e5             	mov    %rsp,%rbp
   4:	48 83 ec 20          	sub    $0x20,%rsp
   8:	48 89 7d f8          	mov    %rdi,-0x8(%rbp)
   c:	48 89 75 f0          	mov    %rsi,-0x10(%rbp)
  10:	48 89 55 e8          	mov    %rdx,-0x18(%rbp)
  14:	48 8b 45 f0          	mov    -0x10(%rbp),%rax
  18:	48 89 c7             	mov    %rax,%rdi
  1b:	e8 00 00 00 00       	callq  20 <_ZNSt4pairINSt8__detail14_Node_iteratorIS_IKNSt7__cxx1112basic_stringIcSt11char_traitsIcESaIcEEES7_ELb0ELb1EEEbEC1ISA_bLb1EEEOT_OT0_+0x20>
  20:	48 89 c2             	mov    %rax,%rdx
  23:	48 8b 45 f8          	mov    -0x8(%rbp),%rax
  27:	48 8b 12             	mov    (%rdx),%rdx
  2a:	48 89 10             	mov    %rdx,(%rax)
  2d:	48 8b 45 e8          	mov    -0x18(%rbp),%rax
  31:	48 89 c7             	mov    %rax,%rdi
  34:	e8 00 00 00 00       	callq  39 <_ZNSt4pairINSt8__detail14_Node_iteratorIS_IKNSt7__cxx1112basic_stringIcSt11char_traitsIcESaIcEEES7_ELb0ELb1EEEbEC1ISA_bLb1EEEOT_OT0_+0x39>
  39:	0f b6 10             	movzbl (%rax),%edx
  3c:	48 8b 45 f8          	mov    -0x8(%rbp),%rax
  40:	88 50 08             	mov    %dl,0x8(%rax)
  43:	90                   	nop
  44:	c9                   	leaveq 
  45:	c3                   	retq   

Disassembly of section .text._ZNSt8__detail16_Hashtable_allocISaINS_10_Hash_nodeISt4pairIKNSt7__cxx1112basic_stringIcSt11char_traitsIcESaIcEEES8_ELb1EEEEE16_M_allocate_nodeIJRKSA_EEEPSB_DpOT_:

0000000000000000 <_ZNSt8__detail16_Hashtable_allocISaINS_10_Hash_nodeISt4pairIKNSt7__cxx1112basic_stringIcSt11char_traitsIcESaIcEEES8_ELb1EEEEE16_M_allocate_nodeIJRKSA_EEEPSB_DpOT_>:
   0:	55                   	push   %rbp
   1:	48 89 e5             	mov    %rsp,%rbp
   4:	53                   	push   %rbx
   5:	48 83 ec 38          	sub    $0x38,%rsp
   9:	48 89 7d c8          	mov    %rdi,-0x38(%rbp)
   d:	48 89 75 c0          	mov    %rsi,-0x40(%rbp)
  11:	64 48 8b 04 25 28 00 	mov    %fs:0x28,%rax
  18:	00 00 
  1a:	48 89 45 e8          	mov    %rax,-0x18(%rbp)
  1e:	31 c0                	xor    %eax,%eax
  20:	48 8b 45 c8          	mov    -0x38(%rbp),%rax
  24:	48 89 c7             	mov    %rax,%rdi
  27:	e8 00 00 00 00       	callq  2c <_ZNSt8__detail16_Hashtable_allocISaINS_10_Hash_nodeISt4pairIKNSt7__cxx1112basic_stringIcSt11char_traitsIcESaIcEEES8_ELb1EEEEE16_M_allocate_nodeIJRKSA_EEEPSB_DpOT_+0x2c>
  2c:	be 01 00 00 00       	mov    $0x1,%esi
  31:	48 89 c7             	mov    %rax,%rdi
  34:	e8 00 00 00 00       	callq  39 <_ZNSt8__detail16_Hashtable_allocISaINS_10_Hash_nodeISt4pairIKNSt7__cxx1112basic_stringIcSt11char_traitsIcESaIcEEES8_ELb1EEEEE16_M_allocate_nodeIJRKSA_EEEPSB_DpOT_+0x39>
  39:	48 89 45 d8          	mov    %rax,-0x28(%rbp)
  3d:	48 8b 45 d8          	mov    -0x28(%rbp),%rax
  41:	48 89 c7             	mov    %rax,%rdi
  44:	e8 00 00 00 00       	callq  49 <_ZNSt8__detail16_Hashtable_allocISaINS_10_Hash_nodeISt4pairIKNSt7__cxx1112basic_stringIcSt11char_traitsIcESaIcEEES8_ELb1EEEEE16_M_allocate_nodeIJRKSA_EEEPSB_DpOT_+0x49>
  49:	48 89 45 e0          	mov    %rax,-0x20(%rbp)
  4d:	48 8b 45 c8          	mov    -0x38(%rbp),%rax
  51:	48 89 c7             	mov    %rax,%rdi
  54:	e8 00 00 00 00       	callq  59 <_ZNSt8__detail16_Hashtable_allocISaINS_10_Hash_nodeISt4pairIKNSt7__cxx1112basic_stringIcSt11char_traitsIcESaIcEEES8_ELb1EEEEE16_M_allocate_nodeIJRKSA_EEEPSB_DpOT_+0x59>
  59:	48 89 c2             	mov    %rax,%rdx
  5c:	48 8d 45 d7          	lea    -0x29(%rbp),%rax
  60:	48 89 d6             	mov    %rdx,%rsi
  63:	48 89 c7             	mov    %rax,%rdi
  66:	e8 00 00 00 00       	callq  6b <_ZNSt8__detail16_Hashtable_allocISaINS_10_Hash_nodeISt4pairIKNSt7__cxx1112basic_stringIcSt11char_traitsIcESaIcEEES8_ELb1EEEEE16_M_allocate_nodeIJRKSA_EEEPSB_DpOT_+0x6b>
  6b:	48 8b 45 e0          	mov    -0x20(%rbp),%rax
  6f:	48 89 c6             	mov    %rax,%rsi
  72:	bf 50 00 00 00       	mov    $0x50,%edi
  77:	e8 00 00 00 00       	callq  7c <_ZNSt8__detail16_Hashtable_allocISaINS_10_Hash_nodeISt4pairIKNSt7__cxx1112basic_stringIcSt11char_traitsIcESaIcEEES8_ELb1EEEEE16_M_allocate_nodeIJRKSA_EEEPSB_DpOT_+0x7c>
  7c:	48 85 c0             	test   %rax,%rax
  7f:	74 08                	je     89 <_ZNSt8__detail16_Hashtable_allocISaINS_10_Hash_nodeISt4pairIKNSt7__cxx1112basic_stringIcSt11char_traitsIcESaIcEEES8_ELb1EEEEE16_M_allocate_nodeIJRKSA_EEEPSB_DpOT_+0x89>
  81:	48 89 c7             	mov    %rax,%rdi
  84:	e8 00 00 00 00       	callq  89 <_ZNSt8__detail16_Hashtable_allocISaINS_10_Hash_nodeISt4pairIKNSt7__cxx1112basic_stringIcSt11char_traitsIcESaIcEEES8_ELb1EEEEE16_M_allocate_nodeIJRKSA_EEEPSB_DpOT_+0x89>
  89:	48 8b 45 c0          	mov    -0x40(%rbp),%rax
  8d:	48 89 c7             	mov    %rax,%rdi
  90:	e8 00 00 00 00       	callq  95 <_ZNSt8__detail16_Hashtable_allocISaINS_10_Hash_nodeISt4pairIKNSt7__cxx1112basic_stringIcSt11char_traitsIcESaIcEEES8_ELb1EEEEE16_M_allocate_nodeIJRKSA_EEEPSB_DpOT_+0x95>
  95:	48 89 c3             	mov    %rax,%rbx
  98:	48 8b 45 e0          	mov    -0x20(%rbp),%rax
  9c:	48 89 c7             	mov    %rax,%rdi
  9f:	e8 00 00 00 00       	callq  a4 <_ZNSt8__detail16_Hashtable_allocISaINS_10_Hash_nodeISt4pairIKNSt7__cxx1112basic_stringIcSt11char_traitsIcESaIcEEES8_ELb1EEEEE16_M_allocate_nodeIJRKSA_EEEPSB_DpOT_+0xa4>
  a4:	48 89 c1             	mov    %rax,%rcx
  a7:	48 8d 45 d7          	lea    -0x29(%rbp),%rax
  ab:	48 89 da             	mov    %rbx,%rdx
  ae:	48 89 ce             	mov    %rcx,%rsi
  b1:	48 89 c7             	mov    %rax,%rdi
  b4:	e8 00 00 00 00       	callq  b9 <_ZNSt8__detail16_Hashtable_allocISaINS_10_Hash_nodeISt4pairIKNSt7__cxx1112basic_stringIcSt11char_traitsIcESaIcEEES8_ELb1EEEEE16_M_allocate_nodeIJRKSA_EEEPSB_DpOT_+0xb9>
  b9:	48 8b 5d e0          	mov    -0x20(%rbp),%rbx
  bd:	48 8d 45 d7          	lea    -0x29(%rbp),%rax
  c1:	48 89 c7             	mov    %rax,%rdi
  c4:	e8 00 00 00 00       	callq  c9 <_ZNSt8__detail16_Hashtable_allocISaINS_10_Hash_nodeISt4pairIKNSt7__cxx1112basic_stringIcSt11char_traitsIcESaIcEEES8_ELb1EEEEE16_M_allocate_nodeIJRKSA_EEEPSB_DpOT_+0xc9>
  c9:	48 89 d8             	mov    %rbx,%rax
  cc:	48 8b 55 e8          	mov    -0x18(%rbp),%rdx
  d0:	64 48 33 14 25 28 00 	xor    %fs:0x28,%rdx
  d7:	00 00 
  d9:	74 5c                	je     137 <_ZNSt8__detail16_Hashtable_allocISaINS_10_Hash_nodeISt4pairIKNSt7__cxx1112basic_stringIcSt11char_traitsIcESaIcEEES8_ELb1EEEEE16_M_allocate_nodeIJRKSA_EEEPSB_DpOT_+0x137>
  db:	eb 55                	jmp    132 <_ZNSt8__detail16_Hashtable_allocISaINS_10_Hash_nodeISt4pairIKNSt7__cxx1112basic_stringIcSt11char_traitsIcESaIcEEES8_ELb1EEEEE16_M_allocate_nodeIJRKSA_EEEPSB_DpOT_+0x132>
  dd:	48 89 c3             	mov    %rax,%rbx
  e0:	48 8d 45 d7          	lea    -0x29(%rbp),%rax
  e4:	48 89 c7             	mov    %rax,%rdi
  e7:	e8 00 00 00 00       	callq  ec <_ZNSt8__detail16_Hashtable_allocISaINS_10_Hash_nodeISt4pairIKNSt7__cxx1112basic_stringIcSt11char_traitsIcESaIcEEES8_ELb1EEEEE16_M_allocate_nodeIJRKSA_EEEPSB_DpOT_+0xec>
  ec:	48 89 d8             	mov    %rbx,%rax
  ef:	48 89 c7             	mov    %rax,%rdi
  f2:	e8 00 00 00 00       	callq  f7 <_ZNSt8__detail16_Hashtable_allocISaINS_10_Hash_nodeISt4pairIKNSt7__cxx1112basic_stringIcSt11char_traitsIcESaIcEEES8_ELb1EEEEE16_M_allocate_nodeIJRKSA_EEEPSB_DpOT_+0xf7>
  f7:	48 8b 45 c8          	mov    -0x38(%rbp),%rax
  fb:	48 89 c7             	mov    %rax,%rdi
  fe:	e8 00 00 00 00       	callq  103 <_ZNSt8__detail16_Hashtable_allocISaINS_10_Hash_nodeISt4pairIKNSt7__cxx1112basic_stringIcSt11char_traitsIcESaIcEEES8_ELb1EEEEE16_M_allocate_nodeIJRKSA_EEEPSB_DpOT_+0x103>
 103:	48 89 c1             	mov    %rax,%rcx
 106:	48 8b 45 d8          	mov    -0x28(%rbp),%rax
 10a:	ba 01 00 00 00       	mov    $0x1,%edx
 10f:	48 89 c6             	mov    %rax,%rsi
 112:	48 89 cf             	mov    %rcx,%rdi
 115:	e8 00 00 00 00       	callq  11a <_ZNSt8__detail16_Hashtable_allocISaINS_10_Hash_nodeISt4pairIKNSt7__cxx1112basic_stringIcSt11char_traitsIcESaIcEEES8_ELb1EEEEE16_M_allocate_nodeIJRKSA_EEEPSB_DpOT_+0x11a>
 11a:	e8 00 00 00 00       	callq  11f <_ZNSt8__detail16_Hashtable_allocISaINS_10_Hash_nodeISt4pairIKNSt7__cxx1112basic_stringIcSt11char_traitsIcESaIcEEES8_ELb1EEEEE16_M_allocate_nodeIJRKSA_EEEPSB_DpOT_+0x11f>
 11f:	48 89 c3             	mov    %rax,%rbx
 122:	e8 00 00 00 00       	callq  127 <_ZNSt8__detail16_Hashtable_allocISaINS_10_Hash_nodeISt4pairIKNSt7__cxx1112basic_stringIcSt11char_traitsIcESaIcEEES8_ELb1EEEEE16_M_allocate_nodeIJRKSA_EEEPSB_DpOT_+0x127>
 127:	48 89 d8             	mov    %rbx,%rax
 12a:	48 89 c7             	mov    %rax,%rdi
 12d:	e8 00 00 00 00       	callq  132 <_ZNSt8__detail16_Hashtable_allocISaINS_10_Hash_nodeISt4pairIKNSt7__cxx1112basic_stringIcSt11char_traitsIcESaIcEEES8_ELb1EEEEE16_M_allocate_nodeIJRKSA_EEEPSB_DpOT_+0x132>
 132:	e8 00 00 00 00       	callq  137 <_ZNSt8__detail16_Hashtable_allocISaINS_10_Hash_nodeISt4pairIKNSt7__cxx1112basic_stringIcSt11char_traitsIcESaIcEEES8_ELb1EEEEE16_M_allocate_nodeIJRKSA_EEEPSB_DpOT_+0x137>
 137:	48 83 c4 38          	add    $0x38,%rsp
 13b:	5b                   	pop    %rbx
 13c:	5d                   	pop    %rbp
 13d:	c3                   	retq   

Disassembly of section .text._ZNKSt8equal_toINSt7__cxx1112basic_stringIcSt11char_traitsIcESaIcEEEEclERKS5_S8_:

0000000000000000 <_ZNKSt8equal_toINSt7__cxx1112basic_stringIcSt11char_traitsIcESaIcEEEEclERKS5_S8_>:
   0:	55                   	push   %rbp
   1:	48 89 e5             	mov    %rsp,%rbp
   4:	48 83 ec 20          	sub    $0x20,%rsp
   8:	48 89 7d f8          	mov    %rdi,-0x8(%rbp)
   c:	48 89 75 f0          	mov    %rsi,-0x10(%rbp)
  10:	48 89 55 e8          	mov    %rdx,-0x18(%rbp)
  14:	48 8b 55 e8          	mov    -0x18(%rbp),%rdx
  18:	48 8b 45 f0          	mov    -0x10(%rbp),%rax
  1c:	48 89 d6             	mov    %rdx,%rsi
  1f:	48 89 c7             	mov    %rax,%rdi
  22:	e8 00 00 00 00       	callq  27 <_ZNKSt8equal_toINSt7__cxx1112basic_stringIcSt11char_traitsIcESaIcEEEEclERKS5_S8_+0x27>
  27:	c9                   	leaveq 
  28:	c3                   	retq   

Disassembly of section .text._ZNSt8__detail21_Hashtable_ebo_helperILi0ESt8equal_toINSt7__cxx1112basic_stringIcSt11char_traitsIcESaIcEEEELb1EE7_S_cgetERKS9_:

0000000000000000 <_ZNSt8__detail21_Hashtable_ebo_helperILi0ESt8equal_toINSt7__cxx1112basic_stringIcSt11char_traitsIcESaIcEEEELb1EE7_S_cgetERKS9_>:
   0:	55                   	push   %rbp
   1:	48 89 e5             	mov    %rsp,%rbp
   4:	48 89 7d f8          	mov    %rdi,-0x8(%rbp)
   8:	48 8b 45 f8          	mov    -0x8(%rbp),%rax
   c:	5d                   	pop    %rbp
   d:	c3                   	retq   

Disassembly of section .text._ZNSt8__detail21_Hashtable_ebo_helperILi0ENS_10_Select1stELb1EE7_S_cgetERKS2_:

0000000000000000 <_ZNSt8__detail21_Hashtable_ebo_helperILi0ENS_10_Select1stELb1EE7_S_cgetERKS2_>:
   0:	55                   	push   %rbp
   1:	48 89 e5             	mov    %rsp,%rbp
   4:	48 89 7d f8          	mov    %rdi,-0x8(%rbp)
   8:	48 8b 45 f8          	mov    -0x8(%rbp),%rax
   c:	5d                   	pop    %rbp
   d:	c3                   	retq   

Disassembly of section .text._ZSt3getILm0EJRKNSt7__cxx1112basic_stringIcSt11char_traitsIcESaIcEEEEERNSt13tuple_elementIXT_ESt5tupleIJDpT0_EEE4typeERSC_:

0000000000000000 <_ZSt3getILm0EJRKNSt7__cxx1112basic_stringIcSt11char_traitsIcESaIcEEEEERNSt13tuple_elementIXT_ESt5tupleIJDpT0_EEE4typeERSC_>:
   0:	55                   	push   %rbp
   1:	48 89 e5             	mov    %rsp,%rbp
   4:	48 83 ec 10          	sub    $0x10,%rsp
   8:	48 89 7d f8          	mov    %rdi,-0x8(%rbp)
   c:	48 8b 45 f8          	mov    -0x8(%rbp),%rax
  10:	48 89 c7             	mov    %rax,%rdi
  13:	e8 00 00 00 00       	callq  18 <_ZSt3getILm0EJRKNSt7__cxx1112basic_stringIcSt11char_traitsIcESaIcEEEEERNSt13tuple_elementIXT_ESt5tupleIJDpT0_EEE4typeERSC_+0x18>
  18:	c9                   	leaveq 
  19:	c3                   	retq   

Disassembly of section .text._ZSt12__get_helperILm0ERKNSt7__cxx1112basic_stringIcSt11char_traitsIcESaIcEEEJEERT0_RSt11_Tuple_implIXT_EJS8_DpT1_EE:

0000000000000000 <_ZSt12__get_helperILm0ERKNSt7__cxx1112basic_stringIcSt11char_traitsIcESaIcEEEJEERT0_RSt11_Tuple_implIXT_EJS8_DpT1_EE>:
   0:	55                   	push   %rbp
   1:	48 89 e5             	mov    %rsp,%rbp
   4:	48 83 ec 10          	sub    $0x10,%rsp
   8:	48 89 7d f8          	mov    %rdi,-0x8(%rbp)
   c:	48 8b 45 f8          	mov    -0x8(%rbp),%rax
  10:	48 89 c7             	mov    %rax,%rdi
  13:	e8 00 00 00 00       	callq  18 <_ZSt12__get_helperILm0ERKNSt7__cxx1112basic_stringIcSt11char_traitsIcESaIcEEEJEERT0_RSt11_Tuple_implIXT_EJS8_DpT1_EE+0x18>
  18:	c9                   	leaveq 
  19:	c3                   	retq   

Disassembly of section .text._ZNSt4pairIKNSt7__cxx1112basic_stringIcSt11char_traitsIcESaIcEEES5_EC2IJRS6_EJLm0EEJEJEEERSt5tupleIJDpT_EERSA_IJDpT1_EESt12_Index_tupleIJXspT0_EEESJ_IJXspT2_EEE:

0000000000000000 <_ZNSt4pairIKNSt7__cxx1112basic_stringIcSt11char_traitsIcESaIcEEES5_EC1IJRS6_EJLm0EEJEJEEERSt5tupleIJDpT_EERSA_IJDpT1_EESt12_Index_tupleIJXspT0_EEESJ_IJXspT2_EEE>:
   0:	55                   	push   %rbp
   1:	48 89 e5             	mov    %rsp,%rbp
   4:	53                   	push   %rbx
   5:	48 83 ec 28          	sub    $0x28,%rsp
   9:	48 89 7d e8          	mov    %rdi,-0x18(%rbp)
   d:	48 89 75 e0          	mov    %rsi,-0x20(%rbp)
  11:	48 89 55 d8          	mov    %rdx,-0x28(%rbp)
  15:	48 8b 5d e8          	mov    -0x18(%rbp),%rbx
  19:	48 8b 45 e0          	mov    -0x20(%rbp),%rax
  1d:	48 89 c7             	mov    %rax,%rdi
  20:	e8 00 00 00 00       	callq  25 <_ZNSt4pairIKNSt7__cxx1112basic_stringIcSt11char_traitsIcESaIcEEES5_EC1IJRS6_EJLm0EEJEJEEERSt5tupleIJDpT_EERSA_IJDpT1_EESt12_Index_tupleIJXspT0_EEESJ_IJXspT2_EEE+0x25>
  25:	48 89 c7             	mov    %rax,%rdi
  28:	e8 00 00 00 00       	callq  2d <_ZNSt4pairIKNSt7__cxx1112basic_stringIcSt11char_traitsIcESaIcEEES5_EC1IJRS6_EJLm0EEJEJEEERSt5tupleIJDpT_EERSA_IJDpT1_EESt12_Index_tupleIJXspT0_EEESJ_IJXspT2_EEE+0x2d>
  2d:	48 89 c6             	mov    %rax,%rsi
  30:	48 89 df             	mov    %rbx,%rdi
  33:	e8 00 00 00 00       	callq  38 <_ZNSt4pairIKNSt7__cxx1112basic_stringIcSt11char_traitsIcESaIcEEES5_EC1IJRS6_EJLm0EEJEJEEERSt5tupleIJDpT_EERSA_IJDpT1_EESt12_Index_tupleIJXspT0_EEESJ_IJXspT2_EEE+0x38>
  38:	48 8b 45 e8          	mov    -0x18(%rbp),%rax
  3c:	48 83 c0 20          	add    $0x20,%rax
  40:	48 89 c7             	mov    %rax,%rdi
  43:	e8 00 00 00 00       	callq  48 <_ZNSt4pairIKNSt7__cxx1112basic_stringIcSt11char_traitsIcESaIcEEES5_EC1IJRS6_EJLm0EEJEJEEERSt5tupleIJDpT_EERSA_IJDpT1_EESt12_Index_tupleIJXspT0_EEESJ_IJXspT2_EEE+0x48>
  48:	90                   	nop
  49:	48 83 c4 28          	add    $0x28,%rsp
  4d:	5b                   	pop    %rbx
  4e:	5d                   	pop    %rbp
  4f:	c3                   	retq   

Disassembly of section .text._ZN9__gnu_cxx13new_allocatorINSt8__detail10_Hash_nodeISt4pairIKNSt7__cxx1112basic_stringIcSt11char_traitsIcESaIcEEES9_ELb1EEEEC2ERKSD_:

0000000000000000 <_ZN9__gnu_cxx13new_allocatorINSt8__detail10_Hash_nodeISt4pairIKNSt7__cxx1112basic_stringIcSt11char_traitsIcESaIcEEES9_ELb1EEEEC1ERKSD_>:
   0:	55                   	push   %rbp
   1:	48 89 e5             	mov    %rsp,%rbp
   4:	48 89 7d f8          	mov    %rdi,-0x8(%rbp)
   8:	48 89 75 f0          	mov    %rsi,-0x10(%rbp)
   c:	90                   	nop
   d:	5d                   	pop    %rbp
   e:	c3                   	retq   

Disassembly of section .text._ZNK9__gnu_cxx13new_allocatorIPNSt8__detail15_Hash_node_baseEE8max_sizeEv:

0000000000000000 <_ZNK9__gnu_cxx13new_allocatorIPNSt8__detail15_Hash_node_baseEE8max_sizeEv>:
   0:	55                   	push   %rbp
   1:	48 89 e5             	mov    %rsp,%rbp
   4:	48 89 7d f8          	mov    %rdi,-0x8(%rbp)
   8:	48 b8 ff ff ff ff ff 	movabs $0x1fffffffffffffff,%rax
   f:	ff ff 1f 
  12:	5d                   	pop    %rbp
  13:	c3                   	retq   

Disassembly of section .text._ZNSt10__pair_getILm0EE11__const_getIKNSt7__cxx1112basic_stringIcSt11char_traitsIcESaIcEEES7_EERKT_RKSt4pairIS9_T0_E:

0000000000000000 <_ZNSt10__pair_getILm0EE11__const_getIKNSt7__cxx1112basic_stringIcSt11char_traitsIcESaIcEEES7_EERKT_RKSt4pairIS9_T0_E>:
   0:	55                   	push   %rbp
   1:	48 89 e5             	mov    %rsp,%rbp
   4:	48 89 7d f8          	mov    %rdi,-0x8(%rbp)
   8:	48 8b 45 f8          	mov    -0x8(%rbp),%rax
   c:	5d                   	pop    %rbp
   d:	c3                   	retq   

Disassembly of section .text._ZNSt16allocator_traitsISaISt4pairIKNSt7__cxx1112basic_stringIcSt11char_traitsIcESaIcEEES6_EEE9constructIS8_JRKS8_EEEvRS9_PT_DpOT0_:

0000000000000000 <_ZNSt16allocator_traitsISaISt4pairIKNSt7__cxx1112basic_stringIcSt11char_traitsIcESaIcEEES6_EEE9constructIS8_JRKS8_EEEvRS9_PT_DpOT0_>:
   0:	55                   	push   %rbp
   1:	48 89 e5             	mov    %rsp,%rbp
   4:	48 83 ec 20          	sub    $0x20,%rsp
   8:	48 89 7d f8          	mov    %rdi,-0x8(%rbp)
   c:	48 89 75 f0          	mov    %rsi,-0x10(%rbp)
  10:	48 89 55 e8          	mov    %rdx,-0x18(%rbp)
  14:	48 8b 45 e8          	mov    -0x18(%rbp),%rax
  18:	48 89 c7             	mov    %rax,%rdi
  1b:	e8 00 00 00 00       	callq  20 <_ZNSt16allocator_traitsISaISt4pairIKNSt7__cxx1112basic_stringIcSt11char_traitsIcESaIcEEES6_EEE9constructIS8_JRKS8_EEEvRS9_PT_DpOT0_+0x20>
  20:	48 89 c2             	mov    %rax,%rdx
  23:	48 8b 4d f0          	mov    -0x10(%rbp),%rcx
  27:	48 8b 45 f8          	mov    -0x8(%rbp),%rax
  2b:	48 89 ce             	mov    %rcx,%rsi
  2e:	48 89 c7             	mov    %rax,%rdi
  31:	e8 00 00 00 00       	callq  36 <_ZNSt16allocator_traitsISaISt4pairIKNSt7__cxx1112basic_stringIcSt11char_traitsIcESaIcEEES6_EEE9constructIS8_JRKS8_EEEvRS9_PT_DpOT0_+0x36>
  36:	90                   	nop
  37:	c9                   	leaveq 
  38:	c3                   	retq   

Disassembly of section .text._ZNSt4pairIKNSt7__cxx1112basic_stringIcSt11char_traitsIcESaIcEEES5_EC2ERKS7_:

0000000000000000 <_ZNSt4pairIKNSt7__cxx1112basic_stringIcSt11char_traitsIcESaIcEEES5_EC1ERKS7_>:
   0:	55                   	push   %rbp
   1:	48 89 e5             	mov    %rsp,%rbp
   4:	53                   	push   %rbx
   5:	48 83 ec 18          	sub    $0x18,%rsp
   9:	48 89 7d e8          	mov    %rdi,-0x18(%rbp)
   d:	48 89 75 e0          	mov    %rsi,-0x20(%rbp)
  11:	48 8b 45 e8          	mov    -0x18(%rbp),%rax
  15:	48 8b 55 e0          	mov    -0x20(%rbp),%rdx
  19:	48 89 d6             	mov    %rdx,%rsi
  1c:	48 89 c7             	mov    %rax,%rdi
  1f:	e8 00 00 00 00       	callq  24 <_ZNSt4pairIKNSt7__cxx1112basic_stringIcSt11char_traitsIcESaIcEEES5_EC1ERKS7_+0x24>
  24:	48 8b 45 e8          	mov    -0x18(%rbp),%rax
  28:	48 83 c0 20          	add    $0x20,%rax
  2c:	48 8b 55 e0          	mov    -0x20(%rbp),%rdx
  30:	48 83 c2 20          	add    $0x20,%rdx
  34:	48 89 d6             	mov    %rdx,%rsi
  37:	48 89 c7             	mov    %rax,%rdi
  3a:	e8 00 00 00 00       	callq  3f <_ZNSt4pairIKNSt7__cxx1112basic_stringIcSt11char_traitsIcESaIcEEES5_EC1ERKS7_+0x3f>
  3f:	eb 1a                	jmp    5b <_ZNSt4pairIKNSt7__cxx1112basic_stringIcSt11char_traitsIcESaIcEEES5_EC1ERKS7_+0x5b>
  41:	48 89 c3             	mov    %rax,%rbx
  44:	48 8b 45 e8          	mov    -0x18(%rbp),%rax
  48:	48 89 c7             	mov    %rax,%rdi
  4b:	e8 00 00 00 00       	callq  50 <_ZNSt4pairIKNSt7__cxx1112basic_stringIcSt11char_traitsIcESaIcEEES5_EC1ERKS7_+0x50>
  50:	48 89 d8             	mov    %rbx,%rax
  53:	48 89 c7             	mov    %rax,%rdi
  56:	e8 00 00 00 00       	callq  5b <_ZNSt4pairIKNSt7__cxx1112basic_stringIcSt11char_traitsIcESaIcEEES5_EC1ERKS7_+0x5b>
  5b:	48 83 c4 18          	add    $0x18,%rsp
  5f:	5b                   	pop    %rbx
  60:	5d                   	pop    %rbp
  61:	c3                   	retq   

Disassembly of section .text._ZN9__gnu_cxx13new_allocatorISt4pairIKNSt7__cxx1112basic_stringIcSt11char_traitsIcESaIcEEES7_EE9constructIS9_JRKS9_EEEvPT_DpOT0_:

0000000000000000 <_ZN9__gnu_cxx13new_allocatorISt4pairIKNSt7__cxx1112basic_stringIcSt11char_traitsIcESaIcEEES7_EE9constructIS9_JRKS9_EEEvPT_DpOT0_>:
   0:	55                   	push   %rbp
   1:	48 89 e5             	mov    %rsp,%rbp
   4:	41 55                	push   %r13
   6:	41 54                	push   %r12
   8:	53                   	push   %rbx
   9:	48 83 ec 28          	sub    $0x28,%rsp
   d:	48 89 7d d8          	mov    %rdi,-0x28(%rbp)
  11:	48 89 75 d0          	mov    %rsi,-0x30(%rbp)
  15:	48 89 55 c8          	mov    %rdx,-0x38(%rbp)
  19:	48 8b 45 c8          	mov    -0x38(%rbp),%rax
  1d:	48 89 c7             	mov    %rax,%rdi
  20:	e8 00 00 00 00       	callq  25 <_ZN9__gnu_cxx13new_allocatorISt4pairIKNSt7__cxx1112basic_stringIcSt11char_traitsIcESaIcEEES7_EE9constructIS9_JRKS9_EEEvPT_DpOT0_+0x25>
  25:	49 89 c5             	mov    %rax,%r13
  28:	4c 8b 65 d0          	mov    -0x30(%rbp),%r12
  2c:	4c 89 e6             	mov    %r12,%rsi
  2f:	bf 40 00 00 00       	mov    $0x40,%edi
  34:	e8 00 00 00 00       	callq  39 <_ZN9__gnu_cxx13new_allocatorISt4pairIKNSt7__cxx1112basic_stringIcSt11char_traitsIcESaIcEEES7_EE9constructIS9_JRKS9_EEEvPT_DpOT0_+0x39>
  39:	48 89 c3             	mov    %rax,%rbx
  3c:	48 85 db             	test   %rbx,%rbx
  3f:	74 26                	je     67 <_ZN9__gnu_cxx13new_allocatorISt4pairIKNSt7__cxx1112basic_stringIcSt11char_traitsIcESaIcEEES7_EE9constructIS9_JRKS9_EEEvPT_DpOT0_+0x67>
  41:	4c 89 ee             	mov    %r13,%rsi
  44:	48 89 df             	mov    %rbx,%rdi
  47:	e8 00 00 00 00       	callq  4c <_ZN9__gnu_cxx13new_allocatorISt4pairIKNSt7__cxx1112basic_stringIcSt11char_traitsIcESaIcEEES7_EE9constructIS9_JRKS9_EEEvPT_DpOT0_+0x4c>
  4c:	eb 19                	jmp    67 <_ZN9__gnu_cxx13new_allocatorISt4pairIKNSt7__cxx1112basic_stringIcSt11char_traitsIcESaIcEEES7_EE9constructIS9_JRKS9_EEEvPT_DpOT0_+0x67>
  4e:	49 89 c5             	mov    %rax,%r13
  51:	4c 89 e6             	mov    %r12,%rsi
  54:	48 89 df             	mov    %rbx,%rdi
  57:	e8 00 00 00 00       	callq  5c <_ZN9__gnu_cxx13new_allocatorISt4pairIKNSt7__cxx1112basic_stringIcSt11char_traitsIcESaIcEEES7_EE9constructIS9_JRKS9_EEEvPT_DpOT0_+0x5c>
  5c:	4c 89 e8             	mov    %r13,%rax
  5f:	48 89 c7             	mov    %rax,%rdi
  62:	e8 00 00 00 00       	callq  67 <_ZN9__gnu_cxx13new_allocatorISt4pairIKNSt7__cxx1112basic_stringIcSt11char_traitsIcESaIcEEES7_EE9constructIS9_JRKS9_EEEvPT_DpOT0_+0x67>
  67:	90                   	nop
  68:	48 83 c4 28          	add    $0x28,%rsp
  6c:	5b                   	pop    %rbx
  6d:	41 5c                	pop    %r12
  6f:	41 5d                	pop    %r13
  71:	5d                   	pop    %rbp
  72:	c3                   	retq   
